ARM GAS  C:\Users\Oleg\AppData\Local\Temp\ccxd6WqM.s 			page 1


   1              		.cpu cortex-m3
   2              		.arch armv7-m
   3              		.fpu softvfp
   4              		.eabi_attribute 20, 1
   5              		.eabi_attribute 21, 1
   6              		.eabi_attribute 23, 3
   7              		.eabi_attribute 24, 1
   8              		.eabi_attribute 25, 1
   9              		.eabi_attribute 26, 1
  10              		.eabi_attribute 30, 6
  11              		.eabi_attribute 34, 1
  12              		.eabi_attribute 18, 4
  13              		.file	"MonoGFX.c"
  14              		.text
  15              	.Ltext0:
  16              		.cfi_sections	.debug_frame
  17              		.global	MonoGFX_tx_buffer
  18              		.section	.bss.MonoGFX_tx_buffer,"aw",%nobits
  19              		.align	2
  22              	MonoGFX_tx_buffer:
  23 0000 00000000 		.space	128
  23      00000000 
  23      00000000 
  23      00000000 
  23      00000000 
  24              		.global	MonoGFX_Frame_buffer
  25              		.section	.bss.MonoGFX_Frame_buffer,"aw",%nobits
  26              		.align	2
  29              	MonoGFX_Frame_buffer:
  30 0000 00000000 		.space	1024
  30      00000000 
  30      00000000 
  30      00000000 
  30      00000000 
  31              		.global	MonoGFX_width
  32              		.section	.data.MonoGFX_width,"aw"
  35              	MonoGFX_width:
  36 0000 80       		.byte	-128
  37              		.global	MonoGFX_height
  38              		.section	.data.MonoGFX_height,"aw"
  41              	MonoGFX_height:
  42 0000 40       		.byte	64
  43              		.global	cnt
  44              		.section	.bss.cnt,"aw",%nobits
  47              	cnt:
  48 0000 00       		.space	1
  49              		.global	size_array
  50              		.section	.rodata.size_array,"a"
  53              	size_array:
  54 0000 64       		.byte	100
  55              		.global	arr
  56              		.section	.bss.arr,"aw",%nobits
  57              		.align	2
  60              	arr:
  61 0000 00000000 		.space	100
  61      00000000 
  61      00000000 
ARM GAS  C:\Users\Oleg\AppData\Local\Temp\ccxd6WqM.s 			page 2


  61      00000000 
  61      00000000 
  62              		.global	array_is_full
  63              		.section	.bss.array_is_full,"aw",%nobits
  66              	array_is_full:
  67 0000 00       		.space	1
  68              		.global	Font_3x5
  69              		.section	.rodata.Font_3x5,"a"
  70              		.align	2
  73              	Font_3x5:
  74 0000 00000017 		.ascii	"\000\000\000\027\000\000\003\000\003\377\012\377\027"
  74      00000300 
  74      03FF0AFF 
  74      17
  75 000d FF1D0904 		.ascii	"\377\035\011\004\022\016\033\012\003\000\000\016\021"
  75      120E1B0A 
  75      0300000E 
  75      11
  76 001a 00110E00 		.ascii	"\000\021\016\000\004\012\004\004\016\004\020\030\000"
  76      040A0404 
  76      0E041018 
  76      00
  77 0027 04040410 		.ascii	"\004\004\004\020\000\000\010\004\002\377\021\377\021"
  77      00000804 
  77      02FF11FF 
  77      11
  78 0034 FF101D15 		.ascii	"\377\020\035\025\027\025\025\377\007\004\377\027\025"
  78      171515FF 
  78      0704FF17 
  78      15
  79 0041 1DFF151D 		.ascii	"\035\377\025\035\001\001\377\377\025\377\027\025\037"
  79      0101FFFF 
  79      15FF1715 
  79      1F
  80 004e 0A000010 		.ascii	"\012\000\000\020\012\000\004\012\000\012\012\012\012"
  80      0A00040A 
  80      000A0A0A 
  80      0A
  81 005b 04000115 		.ascii	"\004\000\001\025\007\037\021\027\037\005\037\037\025"
  81      071F1117 
  81      1F051F1F 
  81      15
  82 0068 1B1F1111 		.ascii	"\033\037\021\021\037\021\016\037\025\025\037\005\005"
  82      1F110E1F 
  82      15151F05 
  82      05
  83 0075 1F111D1F 		.ascii	"\037\021\035\037\004\037\021\037\021\030\020\037\037"
  83      041F111F 
  83      1118101F 
  83      1F
  84 0082 041B1F10 		.ascii	"\004\033\037\020\020\037\002\037\037\001\037\037\021"
  84      101F021F 
  84      1F011F1F 
  84      11
  85 008f 1F1F0507 		.ascii	"\037\037\005\007\017\031\017\037\005\033\027\025\035"
  85      0F190F1F 
  85      051B1715 
ARM GAS  C:\Users\Oleg\AppData\Local\Temp\ccxd6WqM.s 			page 3


  85      1D
  86 009c 011F011F 		.ascii	"\001\037\001\037\020\037\017\020\017\037\010\037\033"
  86      101F0F10 
  86      0F1F081F 
  86      1B
  87 00a9 041B031C 		.ascii	"\004\033\003\034\003\031\025\023\037\021\000\002\004"
  87      03191513 
  87      1F110002 
  87      04
  88 00b6 08111F00 		.ascii	"\010\021\037\000\002\001\002\020\020\020\001\002\000"
  88      02010210 
  88      10100102 
  88      00
  89 00c3 0C121E1E 		.ascii	"\014\022\036\036\024\010\034\024\024\014\022\037\014"
  89      14081C14 
  89      140C121F 
  89      0C
  90 00d0 1A14041F 		.ascii	"\032\024\004\037\005\027\025\017\037\002\034\000\035"
  90      0517150F 
  90      1F021C00 
  90      1D
  91 00dd 00100D00 		.ascii	"\000\020\015\000\037\004\032\001\037\000\036\004\036"
  91      1F041A01 
  91      1F001E04 
  91      1E
  92 00ea 1E021E1E 		.ascii	"\036\002\036\036\022\036\036\012\004\004\012\036\036"
  92      121E1E0A 
  92      04040A1E 
  92      1E
  93 00f7 02061412 		.ascii	"\002\006\024\022\012\002\037\022\036\020\036\016\020"
  93      0A021F12 
  93      1E101E0E 
  93      10
  94 0104 0E1E081E 		.ascii	"\016\036\010\036\032\004\032\023\024\017\032\022\026"
  94      1A041A13 
  94      140F1A12 
  94      16
  95 0111 041F1100 		.ascii	"\004\037\021\000\037\000\021\037\004\014\004\006\037"
  95      1F00111F 
  95      040C0406 
  95      1F
  96 011e 051F1F15 		.ascii	"\005\037\037\025\035\037\025\033\037\001\001\036\021"
  96      1D1F151B 
  96      1F01011E 
  96      11
  97 012b 1E1F1515 		.ascii	"\036\037\025\025\033\037\033\025\025\033\037\020\037"
  97      1B1F1B15 
  97      151B1F10 
  97      1F
  98 0138 1D111D1F 		.ascii	"\035\021\035\037\004\033\036\001\037\037\002\037\037"
  98      041B1E01 
  98      1F1F021F 
  98      1F
  99 0145 041F1F11 		.ascii	"\004\037\037\021\037\037\001\037\037\005\007\037\021"
  99      1F1F011F 
  99      1F05071F 
  99      11
ARM GAS  C:\Users\Oleg\AppData\Local\Temp\ccxd6WqM.s 			page 4


 100 0152 11011F01 		.ascii	"\021\001\037\001\023\024\037\016\033\016\033\004\033"
 100      13141F0E 
 100      1B0E1B04 
 100      1B
 101 015f 0F081F07 		.ascii	"\017\010\037\007\004\037\037\030\037\017\014\037\001"
 101      041F1F18 
 101      1F0F0C1F 
 101      01
 102 016c 1F1C1F14 		.ascii	"\037\034\037\024\037\025\025\016\037\024\010\037\016"
 102      1F15150E 
 102      1F14081F 
 102      0E
 103 0179 1F1B051F 		.ascii	"\037\033\005\037\014\022\036\036\025\035\036\026\014"
 103      0C121E1E 
 103      151D1E16 
 103      0C
 104 0186 1E02021C 		.ascii	"\036\002\002\034\022\034\014\032\024\032\036\032\022"
 104      121C0C1A 
 104      141A1E1A 
 104      12
 105 0193 161E1E10 		.ascii	"\026\036\036\020\036\032\022\032\036\004\032\034\002"
 105      1E1A121A 
 105      1E041A1C 
 105      02
 106 01a0 1E1E041E 		.ascii	"\036\036\004\036\036\010\036\036\022\036\036\002\036"
 106      1E081E1E 
 106      121E1E02 
 106      1E
 107 01ad 1E0A041E 		.ascii	"\036\012\004\036\022\022\002\036\002\026\024\016\014"
 107      1212021E 
 107      0216140E 
 107      0C
 108 01ba 1E0C1A0C 		.ascii	"\036\014\032\014\032\016\010\036\006\004\036\036\030"
 108      1A0E081E 
 108      06041E1E 
 108      18
 109 01c7 1E0E0C1E 		.ascii	"\036\016\014\036\002\036\030\036\024\036\036\030\000"
 109      021E181E 
 109      141E1E18 
 109      00
 110 01d4 12160C1E 		.ascii	"\022\026\014\036\014\036\024\012\036\037\025\025\014"
 110      0C1E140A 
 110      1E1F1515 
 110      0C
 111 01e1 1A140303 		.ascii	"\032\024\003\003\000"
 111      00
 112              		.global	Font_5x7
 113              		.section	.rodata.Font_5x7,"a"
 114              		.align	2
 117              	Font_5x7:
 118 0000 00000000 		.ascii	"\000\000\000\000\000\000O\000\000\000\007\000\007\000"
 118      00004F00 
 118      00000700 
 118      0700
 119 000e 00147F14 		.ascii	"\000\024\177\024\177\024$*\177*\022#\023\010db6IU\""
 119      7F14242A 
 119      7F2A1223 
ARM GAS  C:\Users\Oleg\AppData\Local\Temp\ccxd6WqM.s 			page 5


 119      13086462 
 119      36495522 
 120 0022 40000503 		.ascii	"@\000\005\003\000\000\034\"A\000\000A\"\034\000\000"
 120      00001C22 
 120      41000041 
 120      221C0000 
 121 0032 14083E08 		.ascii	"\024\010>\010\024\010\010>\010\010\240`\000\000\000"
 121      1408083E 
 121      0808A060 
 121      000000
 122 0041 08080808 		.ascii	"\010\010\010\010\010``\000\000\000 \020\010\004\002"
 122      08606000 
 122      00002010 
 122      080402
 123 0050 3E514945 		.ascii	">QIE>\000B\177@\000BaQIF!AEK1\030\024\022\177\020'E"
 123      3E00427F 
 123      40004261 
 123      51494621 
 123      41454B31 
 124 006b 4545393C 		.ascii	"EE9<JII0\001q\011\005\0036III6\006II)\036ll\000\000"
 124      4A494930 
 124      01710905 
 124      03364949 
 124      49360649 
 125 0086 00005636 		.ascii	"\000\000V6\000\000\010\024\"A\000$$$$$\000A\"\024\010"
 125      00000814 
 125      22410024 
 125      24242424 
 125      00412214 
 126 009b 02015109 		.ascii	"\002\001Q\011\0062IyA>~\021\021\021~\177III6>AAA\"\177"
 126      06324979 
 126      413E7E11 
 126      11117E7F 
 126      49494936 
 127 00b5 4141221C 		.ascii	"AA\"\034\177IIIA\177\011\011\011\001>AII:\177\010\010"
 127      7F494949 
 127      417F0909 
 127      09013E41 
 127      49493A7F 
 128 00cb 087F0041 		.ascii	"\010\177\000A\177A\000 @A?\001\177\010\024\"A\177@@"
 128      7F410020 
 128      40413F01 
 128      7F081422 
 128      417F4040 
 129 00df 40407F02 		.ascii	"@@\177\002\014\002\177\177\004\010\020\177>AAA>\177"
 129      0C027F7F 
 129      0408107F 
 129      3E414141 
 129      3E7F
 130 00f1 09090906 		.ascii	"\011\011\011\006>AQ!^\177\011\031)FFIII1\001\001\177"
 130      3E415121 
 130      5E7F0919 
 130      29464649 
 130      49493101 
 131 0107 01013F40 		.ascii	"\001\001?@@@?\037 @ \037?@`@?c\024\010\024c\007\010"
 131      40403F1F 
 131      2040201F 
ARM GAS  C:\Users\Oleg\AppData\Local\Temp\ccxd6WqM.s 			page 6


 131      3F406040 
 131      3F631408 
 132 011f 70080761 		.ascii	"p\010\007aQIEC\177AA\000\000\025\026|\026\025AA\177"
 132      51494543 
 132      7F414100 
 132      0015167C 
 132      16154141 
 133 0134 00000402 		.ascii	"\000\000\004\002\001\002\004@@@@@\001\002\004\000\000"
 133      01020440 
 133      40404040 
 133      01020400 
 133      00
 134 0145 20545454 		.ascii	" TTTx\177DDD88DDD\0008DDH\1778TTT\030\020~\021\001\002"
 134      787F4444 
 134      44383844 
 134      44440038 
 134      4444487F 
 135 0163 0C525252 		.ascii	"\014RRR>\177\010\004\004x\000D}@\000 @@=\000\177\020"
 135      3E7F0804 
 135      04780044 
 135      7D400020 
 135      40403D00 
 136 0179 28440000 		.ascii	"(D\000\000A\177@\000|\004\030\004x|\010\004\004x8DD"
 136      417F4000 
 136      7C041804 
 136      787C0804 
 136      04783844 
 137 018e 44387C14 		.ascii	"D8|\024\024\024\010\010\024\024\030||\010\004\004\010"
 137      14140808 
 137      1414187C 
 137      7C080404 
 137      08
 138 019f 48545454 		.ascii	"HTTT \004?D@ <@@ |\034 @ \034\036 \020 \036\"\024\010"
 138      20043F44 
 138      40203C40 
 138      40207C1C 
 138      2040201C 
 139 01bb 14220648 		.ascii	"\024\"\006HHH>DdTLD\0106A\000\000\000\000\177\000\000"
 139      48483E44 
 139      64544C44 
 139      08364100 
 139      0000007F 
 140 01d1 41360800 		.ascii	"A6\010\000\000\010\010*\034\010~\021\021\021~\177II"
 140      0008082A 
 140      1C087E11 
 140      11117E7F 
 140      4949
 141 01e3 49337F49 		.ascii	"I3\177III6\177\001\001\001\003\340QOA\377\177IIIAw\010"
 141      4949367F 
 141      01010103 
 141      E0514F41 
 141      FF7F4949 
 142 01fb 7F087741 		.ascii	"\177\010wAIII6\177\020\010\004\177|!\022\011|\177\010"
 142      49494936 
 142      7F100804 
 142      7F7C2112 
 142      097C7F08 
ARM GAS  C:\Users\Oleg\AppData\Local\Temp\ccxd6WqM.s 			page 7


 143 020f 14224120 		.ascii	"\024\"A A?\001\177\177\002\014\002\177\177\010\010\010"
 143      413F017F 
 143      7F020C02 
 143      7F7F0808 
 143      08
 144 0220 7F3E4141 		.ascii	"\177>AAA>\177\001\001\001\177\177\011\011\011\006>A"
 144      413E7F01 
 144      01017F7F 
 144      09090906 
 144      3E41
 145 0232 41412201 		.ascii	"AA\"\001\001\177\001\001G(\020\010\007\034\"\177\"\034"
 145      017F0101 
 145      47281008 
 145      071C227F 
 145      221C
 146 0244 63140814 		.ascii	"c\024\010\024c\177@@@\377\007\010\010\010\177\177@\177"
 146      637F4040 
 146      40FF0708 
 146      08087F7F 
 146      407F
 147 0256 407F7F40 		.ascii	"@\177\177@\177@\377\001\177HH0\177H0\000\177\000\177"
 147      7F40FF01 
 147      7F484830 
 147      7F483000 
 147      7F007F
 148 0269 48483022 		.ascii	"HH0\"AII>\177\010>A>F)\031\011\177 TTTx<JJI1|TT(\000"
 148      4149493E 
 148      7F083E41 
 148      3E462919 
 148      097F2054 
 149 028a 7C040404 		.ascii	"|\004\004\004\014\340TLD\3748TTT\030l\020|\020lDDTT"
 149      0CE0544C 
 149      44FC3854 
 149      5454186C 
 149      107C106C 
 150 02a2 287C2010 		.ascii	"(| \020\010||A\"\021||\020(D\000 D<\004||\010\020\010"
 150      087C7C41 
 150      22117C7C 
 150      10284400 
 150      20443C04 
 151 02bb 7C7C1010 		.ascii	"||\020\020\020|8DDD8|\004\004\004||\024\024\024\010"
 151      107C3844 
 151      4444387C 
 151      0404047C 
 151      7C141414 
 152 02d0 38444444 		.ascii	"8DDD(\004\004|\004\004\014PPP<0H\374H0D(\020(D|@@@\374"
 152      2804047C 
 152      04040C50 
 152      50503C30 
 152      48FC4830 
 153 02ee 0C101010 		.ascii	"\014\020\020\020||@|@||@|@\374\004|PP |PP ||PP \000"
 153      7C7C407C 
 153      407C7C40 
 153      7C40FC04 
 153      7C505020 
 154 030c 28445454 		.ascii	"(DTT8|\0208D8\010T4\024|~KJKB8UTU\030\000\006\011\011"
 154      387C1038 
ARM GAS  C:\Users\Oleg\AppData\Local\Temp\ccxd6WqM.s 			page 8


 154      44380854 
 154      34147C7E 
 154      4B4A4B42 
 155 0329 06       		.ascii	"\006"
 156              		.section	.text.MonoGFX_Send_command,"ax",%progbits
 157              		.align	1
 158              		.syntax unified
 159              		.thumb
 160              		.thumb_func
 162              	MonoGFX_Send_command:
 163              	.LFB68:
 164              		.file 1 "MonoGFX/MonoGFX.c"
   1:MonoGFX/MonoGFX.c **** /*
   2:MonoGFX/MonoGFX.c ****  * MonoGFX_lib.c
   3:MonoGFX/MonoGFX.c ****  *
   4:MonoGFX/MonoGFX.c ****  *  –í–µ—Ä—Å–∏—è 1.0.(–û–±—â–∞—è –≥—Ä–∞—Ñ–∏—á–µ—Å–∫–∞—è –±–∏–±–ª–∏–æ—Ç–µ–∫–∞ –í–æ–ª–∫–æ–≤–∞ –û–ª–µ–
   5:MonoGFX/MonoGFX.c ****  *
   6:MonoGFX/MonoGFX.c ****  *  –ü–æ–¥–¥–µ—Ä–∂–∏–≤–∞–µ–º—ã–µ –¥—Ä–∞–π–≤–µ—Ä–∞:
   7:MonoGFX/MonoGFX.c ****  *  - ST7565r
   8:MonoGFX/MonoGFX.c ****  *  - ST7567
   9:MonoGFX/MonoGFX.c ****  *
  10:MonoGFX/MonoGFX.c ****  *  Created on: Feb 18, 2026
  11:MonoGFX/MonoGFX.c ****  *      Author: Oleg Volkov
  12:MonoGFX/MonoGFX.c ****  *
  13:MonoGFX/MonoGFX.c ****  *  YouTube: https://www.youtube.com/channel/UCzZKTNVpcMSALU57G1THoVw
  14:MonoGFX/MonoGFX.c ****  *  GitHub: https://github.com/Solderingironspb/Lessons-Stm32/blob/master/README.md
  15:MonoGFX/MonoGFX.c ****  *  –ì—Ä—É–ø–ø–∞ –í–ö: https://vk.com/solderingiron.stm32
  16:MonoGFX/MonoGFX.c ****  *
  17:MonoGFX/MonoGFX.c ****  *  –ö–æ–¥–∏—Ä–æ–≤–∫–∞ UTF-8 Basic Latin: https://www.utf8-chartable.de/unicode-utf8-table.pl
  18:MonoGFX/MonoGFX.c ****  *  –ö–æ–¥–∏—Ä–æ–≤–∫–∞ UTF-8 Cyrillic: https://www.utf8-chartable.de/unicode-utf8-table.pl?start=10
  19:MonoGFX/MonoGFX.c ****  *  –ü—Ä–æ–≥—Ä–∞–º–º–∞ –¥–ª—è –∫–æ–Ω–≤–µ—Ä—Ç–∞—Ü–∏–∏ –∏–∑–æ–±—Ä–∞–∂–µ–Ω–∏—è.bmp –≤ bitmap: http://e
  20:MonoGFX/MonoGFX.c ****  */
  21:MonoGFX/MonoGFX.c **** 
  22:MonoGFX/MonoGFX.c **** #include "MonoGFX.h"
  23:MonoGFX/MonoGFX.c **** 
  24:MonoGFX/MonoGFX.c **** /*-----------------------------------–ù–∞—Å—Ç—Ä–æ–π–∫–∏----------------------------------*/
  25:MonoGFX/MonoGFX.c **** #if defined(USE_HAL)
  26:MonoGFX/MonoGFX.c **** extern SPI_HandleTypeDef hspi1;  // –ò—Å–ø–æ–ª—å–∑—É–µ–º–∞—è —à–∏–Ω–∞ spi
  27:MonoGFX/MonoGFX.c **** #endif
  28:MonoGFX/MonoGFX.c **** 
  29:MonoGFX/MonoGFX.c **** // clang-format off
  30:MonoGFX/MonoGFX.c **** char MonoGFX_tx_buffer[128] = { 0, };  // –ë—É—Ñ–µ—Ä –¥–ª—è –æ—Ç–ø—Ä–∞–≤–∫–∏ —Ç–µ–∫—Å—Ç–∞ –Ω–∞ –¥–∏
  31:MonoGFX/MonoGFX.c **** uint8_t MonoGFX_Frame_buffer[1024] = { 0, };  // –ë—É—Ñ–µ—Ä –∫–∞–¥—Ä–∞
  32:MonoGFX/MonoGFX.c **** uint8_t MonoGFX_width = 128;  // –®–∏—Ä–∏–Ω–∞ –¥–∏—Å–ø–ª–µ—è –≤ –ø–∏–∫—Å–µ–ª—è—Ö
  33:MonoGFX/MonoGFX.c **** uint8_t MonoGFX_height = 64;  // –í—ã—Å–æ—Ç–∞ –¥–∏—Å–ø–ª–µ—è –≤ –ø–∏–∫—Å–µ–ª—è—Ö
  34:MonoGFX/MonoGFX.c **** 
  35:MonoGFX/MonoGFX.c **** 
  36:MonoGFX/MonoGFX.c **** // –î–ª—è —Ä–∞–±–æ—Ç—ã –æ—Ç—Ä–∏—Å–æ–≤–∫–∏ –≥—Ä–∞—Ñ–∏–∫–∞:
  37:MonoGFX/MonoGFX.c **** uint8_t cnt = 0;                 // —Å—á–µ—Ç—á–∏–∫ –Ω–∞–∫–æ–ø–ª–µ–Ω–∏—è –∑–Ω–∞—á–µ–Ω–∏–π –≤ –æ–∫–Ω–
  38:MonoGFX/MonoGFX.c **** const uint8_t size_array = 100;  // —Ä–∞–∑–º–µ—Ä –º–∞—Å—Å–∏–≤–∞. –í –Ω–∞—à–µ–º —Å–ª—É—á–∞–µ —à–∏—Ä–
  39:MonoGFX/MonoGFX.c **** uint8_t arr[100] = {0, };  // –∑–Ω–∞—á–µ–Ω–∏—è –Ω–∞ –≥—Ä–∞—Ñ–∏–∫–µ. –ó–∞–ø–æ–ª–Ω—è—é—Ç—Å—è –≤ –æ–ø—
  40:MonoGFX/MonoGFX.c **** bool array_is_full = 0;  // –∑–Ω–∞—á–µ–Ω–∏—è –∑–∞–ø–æ–ª–Ω–∏–ª–∏ –º–∞—Å—Å–∏–≤, –º–æ–∂–Ω–æ —Å–¥–≤–∏–≥
  41:MonoGFX/MonoGFX.c **** // clang-format on
  42:MonoGFX/MonoGFX.c **** 
  43:MonoGFX/MonoGFX.c **** /*-----------------------------------–ù–∞—Å—Ç—Ä–æ–π–∫–∏----------------------------------*/
  44:MonoGFX/MonoGFX.c **** 
  45:MonoGFX/MonoGFX.c **** /*------------------------------–î–æ–±–∞–≤–∏—Ç—å –≤ main.c-------------------------------*/
ARM GAS  C:\Users\Oleg\AppData\Local\Temp\ccxd6WqM.s 			page 9


  46:MonoGFX/MonoGFX.c **** // extern char MonoGFX_tx_buffer[128]; //–ë—É—Ñ–µ—Ä –¥–ª—è –æ—Ç–ø—Ä–∞–≤–∫–∏ —Ç–µ–∫—Å—Ç–∞ –Ω–∞ –¥–∏—
  47:MonoGFX/MonoGFX.c **** // extern uint8_t MonoGFX_Frame_buffer[1024]; //–ë—É—Ñ–µ—Ä –∫–∞–¥—Ä–∞
  48:MonoGFX/MonoGFX.c **** // –ï—Å–ª–∏ –ø–ª–∞–Ω–∏—Ä—É–µ—Ç—Å—è –≤—ã–≤–æ–¥–∏—Ç—å –æ–¥–∏–Ω –≥—Ä–∞—Ñ–∏–∫, —Ç–æ:
  49:MonoGFX/MonoGFX.c **** // extern uint8_t cnt;//—Å—á–µ—Ç—á–∏–∫ –Ω–∞–∫–æ–ø–ª–µ–Ω–∏—è –∑–Ω–∞—á–µ–Ω–∏–π –≤ –æ–∫–Ω–µ –≥—Ä–∞—Ñ–∏
  50:MonoGFX/MonoGFX.c **** // extern const uint8_t size_array;//—Ä–∞–∑–º–µ—Ä –º–∞—Å—Å–∏–≤–∞. –í –Ω–∞—à–µ–º —Å–ª—É—á–∞–µ —à–∏—Ä
  51:MonoGFX/MonoGFX.c **** // extern uint8_t arr[100];//–∑–Ω–∞—á–µ–Ω–∏—è –Ω–∞ –≥—Ä–∞—Ñ–∏–∫–µ. –ó–∞–ø–æ–ª–Ω—è—é—Ç—Å—è –≤ –æ–ø—Ä
  52:MonoGFX/MonoGFX.c **** // extern bool array_is_full;//–∑–Ω–∞—á–µ–Ω–∏—è –∑–∞–ø–æ–ª–Ω–∏–ª–∏ –º–∞—Å—Å–∏–≤, –º–æ–∂–Ω–æ —Å–¥–≤–
  53:MonoGFX/MonoGFX.c **** /*------------------------------–î–æ–±–∞–≤–∏—Ç—å –≤ main.c-------------------------------*/
  54:MonoGFX/MonoGFX.c **** 
  55:MonoGFX/MonoGFX.c **** /*–®—Ä–∏—Ñ—Ç 3x5*/
  56:MonoGFX/MonoGFX.c **** const uint8_t Font_3x5[] = {
  57:MonoGFX/MonoGFX.c ****     0x00, 0x00, 0x00,  // 0/ --> space     20
  58:MonoGFX/MonoGFX.c ****     0x17, 0x00, 0x00,  // 1/ --> !         21
  59:MonoGFX/MonoGFX.c ****     0x03, 0x00, 0x03,  // 2/ --> "         22 –∏ —Ç.–¥.
  60:MonoGFX/MonoGFX.c ****     0xFF, 0x0A, 0xFF,  // 3/ --> #
  61:MonoGFX/MonoGFX.c ****     0x17, 0xFF, 0x1D,  // 4/ --> $
  62:MonoGFX/MonoGFX.c ****     0x09, 0x04, 0x12,  // 5/ --> %
  63:MonoGFX/MonoGFX.c ****     0x0E, 0x1B, 0x0A,  // 6/ --> &
  64:MonoGFX/MonoGFX.c ****     0x03, 0x00, 0x00,  // 7/ --> '
  65:MonoGFX/MonoGFX.c ****     0x0E, 0x11, 0x00,  // 8/ --> (
  66:MonoGFX/MonoGFX.c ****     0x11, 0x0E, 0x00,  // 9/ --> )
  67:MonoGFX/MonoGFX.c ****     0x04, 0x0A, 0x04,  // 10/ --> *
  68:MonoGFX/MonoGFX.c ****     0x04, 0x0E, 0x04,  // 11/ --> +
  69:MonoGFX/MonoGFX.c ****     0x10, 0x18, 0x00,  // 12/ --> ,
  70:MonoGFX/MonoGFX.c ****     0x04, 0x04, 0x04,  // 13/ --> -
  71:MonoGFX/MonoGFX.c ****     0x10, 0x00, 0x00,  // 14/ --> .
  72:MonoGFX/MonoGFX.c ****     0x08, 0x04, 0x02,  // 15/ --> /
  73:MonoGFX/MonoGFX.c ****     0xFF, 0x11, 0xFF,  // 16/ --> 0
  74:MonoGFX/MonoGFX.c ****     0x11, 0xFF, 0x10,  // 17/ --> 1
  75:MonoGFX/MonoGFX.c ****     0x1D, 0x15, 0x17,  // 18/ --> 2
  76:MonoGFX/MonoGFX.c ****     0x15, 0x15, 0xFF,  // 19/ --> 3
  77:MonoGFX/MonoGFX.c ****     0x07, 0x04, 0xFF,  // 20/ --> 4
  78:MonoGFX/MonoGFX.c ****     0x17, 0x15, 0x1D,  // 21/ --> 5
  79:MonoGFX/MonoGFX.c ****     0xFF, 0x15, 0x1D,  // 22/ --> 6
  80:MonoGFX/MonoGFX.c ****     0x01, 0x01, 0xFF,  // 23/ --> 7
  81:MonoGFX/MonoGFX.c ****     0xFF, 0x15, 0xFF,  // 24/ --> 8
  82:MonoGFX/MonoGFX.c ****     0x17, 0x15, 0x1F,  // 25/ --> 9
  83:MonoGFX/MonoGFX.c ****     0x0A, 0x00, 0x00,  // 26/ --> :
  84:MonoGFX/MonoGFX.c ****     0x10, 0x0A, 0x00,  // 27/ --> ;
  85:MonoGFX/MonoGFX.c ****     0x04, 0x0A, 0x00,  // 28/ --> <
  86:MonoGFX/MonoGFX.c ****     0x0A, 0x0A, 0x0A,  // 29/ --> =
  87:MonoGFX/MonoGFX.c ****     0x0A, 0x04, 0x00,  // 30/ --> >
  88:MonoGFX/MonoGFX.c ****     0x01, 0x15, 0x07,  // 31/ --> ?
  89:MonoGFX/MonoGFX.c ****     0x1F, 0x11, 0x17,  // 32/ --> @
  90:MonoGFX/MonoGFX.c ****     0x1F, 0x05, 0x1F,  // 33/ --> A
  91:MonoGFX/MonoGFX.c ****     0x1F, 0x15, 0x1B,  // 34/ --> B
  92:MonoGFX/MonoGFX.c ****     0x1F, 0x11, 0x11,  // 35/ --> C
  93:MonoGFX/MonoGFX.c ****     0x1F, 0x11, 0x0E,  // 36/ --> D
  94:MonoGFX/MonoGFX.c ****     0x1F, 0x15, 0x15,  // 37/ --> E
  95:MonoGFX/MonoGFX.c ****     0x1F, 0x05, 0x05,  // 38/ --> F
  96:MonoGFX/MonoGFX.c ****     0x1F, 0x11, 0x1D,  // 39/ --> G
  97:MonoGFX/MonoGFX.c ****     0x1F, 0x04, 0x1F,  // 40/ --> H
  98:MonoGFX/MonoGFX.c ****     0x11, 0x1F, 0x11,  // 41/ --> I
  99:MonoGFX/MonoGFX.c ****     0x18, 0x10, 0x1F,  // 42/ --> J
 100:MonoGFX/MonoGFX.c ****     0x1F, 0x04, 0x1B,  // 43/ --> K
 101:MonoGFX/MonoGFX.c ****     0x1F, 0x10, 0x10,  // 44/ --> L
 102:MonoGFX/MonoGFX.c ****     0x1F, 0x02, 0x1F,  // 45/ --> M
ARM GAS  C:\Users\Oleg\AppData\Local\Temp\ccxd6WqM.s 			page 10


 103:MonoGFX/MonoGFX.c ****     0x1F, 0x01, 0x1F,  // 46/ --> N
 104:MonoGFX/MonoGFX.c ****     0x1F, 0x11, 0x1F,  // 47/ --> O
 105:MonoGFX/MonoGFX.c ****     0x1F, 0x05, 0x07,  // 48/ --> P
 106:MonoGFX/MonoGFX.c ****     0x0F, 0x19, 0x0F,  // 49/ --> Q
 107:MonoGFX/MonoGFX.c ****     0x1F, 0x05, 0x1B,  // 50/ --> R
 108:MonoGFX/MonoGFX.c ****     0x17, 0x15, 0x1D,  // 51/ --> S
 109:MonoGFX/MonoGFX.c ****     0x01, 0x1F, 0x01,  // 52/ --> T
 110:MonoGFX/MonoGFX.c ****     0x1F, 0x10, 0x1F,  // 53/ --> U
 111:MonoGFX/MonoGFX.c ****     0x0F, 0x10, 0x0F,  // 54/ --> V
 112:MonoGFX/MonoGFX.c ****     0x1F, 0x08, 0x1F,  // 55/ --> W
 113:MonoGFX/MonoGFX.c ****     0x1B, 0x04, 0x1B,  // 56/ --> X
 114:MonoGFX/MonoGFX.c ****     0x03, 0x1C, 0x03,  // 57/ --> Y
 115:MonoGFX/MonoGFX.c ****     0x19, 0x15, 0x13,  // 58/ --> Z
 116:MonoGFX/MonoGFX.c ****     0x1F, 0x11, 0x00,  // 59/ --> [
 117:MonoGFX/MonoGFX.c ****     0x02, 0x04, 0x08,  // 60/ --> '\'
 118:MonoGFX/MonoGFX.c ****     0x11, 0x1F, 0x00,  // 61/ --> ]
 119:MonoGFX/MonoGFX.c ****     0x02, 0x01, 0x02,  // 62/ --> ^
 120:MonoGFX/MonoGFX.c ****     0x10, 0x10, 0x10,  // 63/ --> _
 121:MonoGFX/MonoGFX.c ****     0x01, 0x02, 0x00,  // 64/ --> `
 122:MonoGFX/MonoGFX.c ****     0x0C, 0x12, 0x1E,  // 65/ --> a
 123:MonoGFX/MonoGFX.c ****     0x1E, 0x14, 0x08,  // 66/ --> b
 124:MonoGFX/MonoGFX.c ****     0x1C, 0x14, 0x14,  // 67/ --> c
 125:MonoGFX/MonoGFX.c ****     0x0C, 0x12, 0x1F,  // 68/ --> d
 126:MonoGFX/MonoGFX.c ****     0x0C, 0x1A, 0x14,  // 69/ --> e
 127:MonoGFX/MonoGFX.c ****     0x04, 0x1F, 0x05,  // 70/ --> f
 128:MonoGFX/MonoGFX.c ****     0x17, 0x15, 0x0F,  // 71/ --> g
 129:MonoGFX/MonoGFX.c ****     0x1F, 0x02, 0x1C,  // 72/ --> h
 130:MonoGFX/MonoGFX.c ****     0x00, 0x1D, 0x00,  // 73/ --> i
 131:MonoGFX/MonoGFX.c ****     0x10, 0x0D, 0x00,  // 74/ --> j
 132:MonoGFX/MonoGFX.c ****     0x1F, 0x04, 0x1A,  // 75/ --> k
 133:MonoGFX/MonoGFX.c ****     0x01, 0x1F, 0x00,  // 76/ --> l
 134:MonoGFX/MonoGFX.c ****     0x1E, 0x04, 0x1E,  // 77/ --> m
 135:MonoGFX/MonoGFX.c ****     0x1E, 0x02, 0x1E,  // 78/ --> n
 136:MonoGFX/MonoGFX.c ****     0x1E, 0x12, 0x1E,  // 79/ --> o
 137:MonoGFX/MonoGFX.c ****     0x1E, 0x0A, 0x04,  // 80/ --> p
 138:MonoGFX/MonoGFX.c ****     0x04, 0x0A, 0x1E,  // 81/ --> q
 139:MonoGFX/MonoGFX.c ****     0x1E, 0x02, 0x06,  // 82/ --> r
 140:MonoGFX/MonoGFX.c ****     0x14, 0x12, 0x0A,  // 83/ --> s
 141:MonoGFX/MonoGFX.c ****     0x02, 0x1F, 0x12,  // 84/ --> t
 142:MonoGFX/MonoGFX.c ****     0x1E, 0x10, 0x1E,  // 85/ --> u
 143:MonoGFX/MonoGFX.c ****     0x0E, 0x10, 0x0E,  // 86/ --> v
 144:MonoGFX/MonoGFX.c ****     0x1E, 0x08, 0x1E,  // 87/ --> w
 145:MonoGFX/MonoGFX.c ****     0x1A, 0x04, 0x1A,  // 88/ --> x
 146:MonoGFX/MonoGFX.c ****     0x13, 0x14, 0x0F,  // 89/ --> y
 147:MonoGFX/MonoGFX.c ****     0x1A, 0x12, 0x16,  // 90/ --> z
 148:MonoGFX/MonoGFX.c ****     0x04, 0x1F, 0x11,  // 91/ --> {
 149:MonoGFX/MonoGFX.c ****     0x00, 0x1F, 0x00,  // 92/ --> |
 150:MonoGFX/MonoGFX.c ****     0x11, 0x1F, 0x04,  // 93/ --> }
 151:MonoGFX/MonoGFX.c ****     0x0C, 0x04, 0x06,  // 94/ --> ~
 152:MonoGFX/MonoGFX.c ****     0x1F, 0x05, 0x1F,  // 95/ --> –ê
 153:MonoGFX/MonoGFX.c ****     0x1F, 0x15, 0x1D,  // 96/ --> –ë
 154:MonoGFX/MonoGFX.c ****     0x1F, 0x15, 0x1B,  // 97/ --> –í
 155:MonoGFX/MonoGFX.c ****     0x1F, 0x01, 0x01,  // 98/ --> –ì
 156:MonoGFX/MonoGFX.c ****     0x1E, 0x11, 0x1E,  // 99/ --> –î
 157:MonoGFX/MonoGFX.c ****     0x1F, 0x15, 0x15,  // 100/ --> –ï
 158:MonoGFX/MonoGFX.c ****     0x1B, 0x1F, 0x1B,  // 101/ --> –ñ
 159:MonoGFX/MonoGFX.c ****     0x15, 0x15, 0x1B,  // 102/ --> –ó
ARM GAS  C:\Users\Oleg\AppData\Local\Temp\ccxd6WqM.s 			page 11


 160:MonoGFX/MonoGFX.c ****     0x1F, 0x10, 0x1F,  // 103/ --> –ò
 161:MonoGFX/MonoGFX.c ****     0x1D, 0x11, 0x1D,  // 104/ --> –ô
 162:MonoGFX/MonoGFX.c ****     0x1F, 0x04, 0x1B,  // 105/ --> –ö
 163:MonoGFX/MonoGFX.c ****     0x1E, 0x01, 0x1F,  // 106/ --> –õ
 164:MonoGFX/MonoGFX.c ****     0x1F, 0x02, 0x1F,  // 107/ --> –ú
 165:MonoGFX/MonoGFX.c ****     0x1F, 0x04, 0x1F,  // 108/ --> –ù
 166:MonoGFX/MonoGFX.c ****     0x1F, 0x11, 0x1F,  // 109/ --> –û
 167:MonoGFX/MonoGFX.c ****     0x1F, 0x01, 0x1F,  // 110/ --> –ü
 168:MonoGFX/MonoGFX.c ****     0x1F, 0x05, 0x07,  // 111/ --> –†
 169:MonoGFX/MonoGFX.c ****     0x1F, 0x11, 0x11,  // 112/ --> –°
 170:MonoGFX/MonoGFX.c ****     0x01, 0x1F, 0x01,  // 113/ --> –¢
 171:MonoGFX/MonoGFX.c ****     0x13, 0x14, 0x1F,  // 114/ --> –£
 172:MonoGFX/MonoGFX.c ****     0x0E, 0x1B, 0x0E,  // 115/ --> –§
 173:MonoGFX/MonoGFX.c ****     0x1B, 0x04, 0x1B,  // 116/ --> –•
 174:MonoGFX/MonoGFX.c ****     0x0F, 0x08, 0x1F,  // 117/ --> –¶
 175:MonoGFX/MonoGFX.c ****     0x07, 0x04, 0x1F,  // 118/ --> –ß
 176:MonoGFX/MonoGFX.c ****     0x1F, 0x18, 0x1F,  // 119/ --> –®
 177:MonoGFX/MonoGFX.c ****     0x0F, 0x0C, 0x1F,  // 120/ --> –©
 178:MonoGFX/MonoGFX.c ****     0x01, 0x1F, 0x1C,  // 121/ --> –™
 179:MonoGFX/MonoGFX.c ****     0x1F, 0x14, 0x1F,  // 122/ --> –´
 180:MonoGFX/MonoGFX.c ****     0x15, 0x15, 0x0E,  // 123/ --> –≠
 181:MonoGFX/MonoGFX.c ****     0x1F, 0x14, 0x08,  // 124/ --> –¨
 182:MonoGFX/MonoGFX.c ****     0x1F, 0x0E, 0x1F,  // 125/ --> –Æ
 183:MonoGFX/MonoGFX.c ****     0x1B, 0x05, 0x1F,  // 126/ --> –Ø
 184:MonoGFX/MonoGFX.c ****     0x0C, 0x12, 0x1E,  // 127/ --> a
 185:MonoGFX/MonoGFX.c ****     0x1E, 0x15, 0x1D,  // 128/ --> –±
 186:MonoGFX/MonoGFX.c ****     0x1E, 0x16, 0x0C,  // 129/ --> –≤
 187:MonoGFX/MonoGFX.c ****     0x1E, 0x02, 0x02,  // 130/ --> –≥
 188:MonoGFX/MonoGFX.c ****     0x1C, 0x12, 0x1C,  // 131/ --> –¥
 189:MonoGFX/MonoGFX.c ****     0x0C, 0x1A, 0x14,  // 132/ --> –µ
 190:MonoGFX/MonoGFX.c ****     0x1A, 0x1E, 0x1A,  // 133/ --> –∂
 191:MonoGFX/MonoGFX.c ****     0x12, 0x16, 0x1E,  // 134/ --> –∑
 192:MonoGFX/MonoGFX.c ****     0x1E, 0x10, 0x1E,  // 135/ --> –∏
 193:MonoGFX/MonoGFX.c ****     0x1A, 0x12, 0x1A,  // 136/ --> –π
 194:MonoGFX/MonoGFX.c ****     0x1E, 0x04, 0x1A,  // 137/ --> –∫
 195:MonoGFX/MonoGFX.c ****     0x1C, 0x02, 0x1E,  // 138/ --> –ª
 196:MonoGFX/MonoGFX.c ****     0x1E, 0x04, 0x1E,  // 139/ --> –º
 197:MonoGFX/MonoGFX.c ****     0x1E, 0x08, 0x1E,  // 140/ --> –Ω
 198:MonoGFX/MonoGFX.c ****     0x1E, 0x12, 0x1E,  // 141/ --> –æ
 199:MonoGFX/MonoGFX.c ****     0x1E, 0x02, 0x1E,  // 142/ --> –ø
 200:MonoGFX/MonoGFX.c ****     0x1E, 0x0A, 0x04,  // 143/ --> —Ä
 201:MonoGFX/MonoGFX.c ****     0x1E, 0x12, 0x12,  // 144/ --> —Å
 202:MonoGFX/MonoGFX.c ****     0x02, 0x1E, 0x02,  // 145/ --> —Ç
 203:MonoGFX/MonoGFX.c ****     0x16, 0x14, 0x0E,  // 146/ --> —É
 204:MonoGFX/MonoGFX.c ****     0x0C, 0x1E, 0x0C,  // 147/ --> —Ñ
 205:MonoGFX/MonoGFX.c ****     0x1A, 0x0C, 0x1A,  // 148/ --> —Ö
 206:MonoGFX/MonoGFX.c ****     0x0E, 0x08, 0x1E,  // 149/ --> —Ü
 207:MonoGFX/MonoGFX.c ****     0x06, 0x04, 0x1E,  // 150/ --> —á
 208:MonoGFX/MonoGFX.c ****     0x1E, 0x18, 0x1E,  // 151/ --> —à
 209:MonoGFX/MonoGFX.c ****     0x0E, 0x0C, 0x1E,  // 152/ --> —â
 210:MonoGFX/MonoGFX.c ****     0x02, 0x1E, 0x18,  // 153/ --> —ä
 211:MonoGFX/MonoGFX.c ****     0x1E, 0x14, 0x1E,  // 154/ --> —ã
 212:MonoGFX/MonoGFX.c ****     0x1E, 0x18, 0x00,  // 155/ --> —å
 213:MonoGFX/MonoGFX.c ****     0x12, 0x16, 0x0C,  // 156/ --> —ç
 214:MonoGFX/MonoGFX.c ****     0x1E, 0x0C, 0x1E,  // 157/ --> —é
 215:MonoGFX/MonoGFX.c ****     0x14, 0x0A, 0x1E,  // 158/ --> —è
 216:MonoGFX/MonoGFX.c ****     0x1F, 0x15, 0x15,  // 159/ --> –Å
ARM GAS  C:\Users\Oleg\AppData\Local\Temp\ccxd6WqM.s 			page 12


 217:MonoGFX/MonoGFX.c ****     0x0C, 0x1A, 0x14,  // 160/ --> —ë
 218:MonoGFX/MonoGFX.c ****     0x03, 0x03, 0x00,  // 161/ --> ¬∞
 219:MonoGFX/MonoGFX.c **** };
 220:MonoGFX/MonoGFX.c **** 
 221:MonoGFX/MonoGFX.c **** /*–®—Ä–∏—Ñ—Ç 5x7*/
 222:MonoGFX/MonoGFX.c **** const uint8_t Font_5x7[] = {
 223:MonoGFX/MonoGFX.c ****     0x00, 0x00, 0x00, 0x00, 0x00,  // 0/ --> space     20
 224:MonoGFX/MonoGFX.c ****     0x00, 0x4F, 0x00, 0x00, 0x00,  // 1/ --> !         21
 225:MonoGFX/MonoGFX.c ****     0x07, 0x00, 0x07, 0x00, 0x00,  // 2/ --> "         22 –∏ —Ç.–¥.
 226:MonoGFX/MonoGFX.c ****     0x14, 0x7F, 0x14, 0x7F, 0x14,  // 3/ --> #
 227:MonoGFX/MonoGFX.c ****     0x24, 0x2A, 0x7F, 0x2A, 0x12,  // 4/ --> $
 228:MonoGFX/MonoGFX.c ****     0x23, 0x13, 0x08, 0x64, 0x62,  // 5/ --> %
 229:MonoGFX/MonoGFX.c ****     0x36, 0x49, 0x55, 0x22, 0x40,  // 6/ --> &
 230:MonoGFX/MonoGFX.c ****     0x00, 0x05, 0x03, 0x00, 0x00,  // 7/ --> '
 231:MonoGFX/MonoGFX.c ****     0x1C, 0x22, 0x41, 0x00, 0x00,  // 8/ --> (
 232:MonoGFX/MonoGFX.c ****     0x41, 0x22, 0x1C, 0x00, 0x00,  // 9/ --> )
 233:MonoGFX/MonoGFX.c ****     0x14, 0x08, 0x3E, 0x08, 0x14,  // 10/ --> *
 234:MonoGFX/MonoGFX.c ****     0x08, 0x08, 0x3E, 0x08, 0x08,  // 11/ --> +
 235:MonoGFX/MonoGFX.c ****     0xA0, 0x60, 0x00, 0x00, 0x00,  // 12/ --> ,
 236:MonoGFX/MonoGFX.c ****     0x08, 0x08, 0x08, 0x08, 0x08,  // 13/ --> -
 237:MonoGFX/MonoGFX.c ****     0x60, 0x60, 0x00, 0x00, 0x00,  // 14/ --> .
 238:MonoGFX/MonoGFX.c ****     0x20, 0x10, 0x08, 0x04, 0x02,  // 15/ --> /
 239:MonoGFX/MonoGFX.c ****     0x3E, 0x51, 0x49, 0x45, 0x3E,  // 16/ --> 0
 240:MonoGFX/MonoGFX.c ****     0x00, 0x42, 0x7F, 0x40, 0x00,  // 17/ --> 1
 241:MonoGFX/MonoGFX.c ****     0x42, 0x61, 0x51, 0x49, 0x46,  // 18/ --> 2
 242:MonoGFX/MonoGFX.c ****     0x21, 0x41, 0x45, 0x4B, 0x31,  // 19/ --> 3
 243:MonoGFX/MonoGFX.c ****     0x18, 0x14, 0x12, 0x7F, 0x10,  // 20/ --> 4
 244:MonoGFX/MonoGFX.c ****     0x27, 0x45, 0x45, 0x45, 0x39,  // 21/ --> 5
 245:MonoGFX/MonoGFX.c ****     0x3C, 0x4A, 0x49, 0x49, 0x30,  // 22/ --> 6
 246:MonoGFX/MonoGFX.c ****     0x01, 0x71, 0x09, 0x05, 0x03,  // 23/ --> 7
 247:MonoGFX/MonoGFX.c ****     0x36, 0x49, 0x49, 0x49, 0x36,  // 24/ --> 8
 248:MonoGFX/MonoGFX.c ****     0x06, 0x49, 0x49, 0x29, 0x1E,  // 25/ --> 9
 249:MonoGFX/MonoGFX.c ****     0x6C, 0x6C, 0x00, 0x00, 0x00,  // 26/ --> :
 250:MonoGFX/MonoGFX.c ****     0x00, 0x56, 0x36, 0x00, 0x00,  // 27/ --> ;
 251:MonoGFX/MonoGFX.c ****     0x08, 0x14, 0x22, 0x41, 0x00,  // 28/ --> <
 252:MonoGFX/MonoGFX.c ****     0x24, 0x24, 0x24, 0x24, 0x24,  // 29/ --> =
 253:MonoGFX/MonoGFX.c ****     0x00, 0x41, 0x22, 0x14, 0x08,  // 30/ --> >
 254:MonoGFX/MonoGFX.c ****     0x02, 0x01, 0x51, 0x09, 0x06,  // 31/ --> ?
 255:MonoGFX/MonoGFX.c ****     0x32, 0x49, 0x79, 0x41, 0x3E,  // 32/ --> @
 256:MonoGFX/MonoGFX.c ****     0x7E, 0x11, 0x11, 0x11, 0x7E,  // 33/ --> A
 257:MonoGFX/MonoGFX.c ****     0x7F, 0x49, 0x49, 0x49, 0x36,  // 34/ --> B
 258:MonoGFX/MonoGFX.c ****     0x3E, 0x41, 0x41, 0x41, 0x22,  // 35/ --> C
 259:MonoGFX/MonoGFX.c ****     0x7F, 0x41, 0x41, 0x22, 0x1C,  // 36/ --> D
 260:MonoGFX/MonoGFX.c ****     0x7F, 0x49, 0x49, 0x49, 0x41,  // 37/ --> E
 261:MonoGFX/MonoGFX.c ****     0x7F, 0x09, 0x09, 0x09, 0x01,  // 38/ --> F
 262:MonoGFX/MonoGFX.c ****     0x3E, 0x41, 0x49, 0x49, 0x3A,  // 39/ --> G
 263:MonoGFX/MonoGFX.c ****     0x7F, 0x08, 0x08, 0x08, 0x7F,  // 40/ --> H
 264:MonoGFX/MonoGFX.c ****     0x00, 0x41, 0x7F, 0x41, 0x00,  // 41/ --> I
 265:MonoGFX/MonoGFX.c ****     0x20, 0x40, 0x41, 0x3F, 0x01,  // 42/ --> J
 266:MonoGFX/MonoGFX.c ****     0x7F, 0x08, 0x14, 0x22, 0x41,  // 43/ --> K
 267:MonoGFX/MonoGFX.c ****     0x7F, 0x40, 0x40, 0x40, 0x40,  // 44/ --> L
 268:MonoGFX/MonoGFX.c ****     0x7F, 0x02, 0x0C, 0x02, 0x7F,  // 45/ --> M
 269:MonoGFX/MonoGFX.c ****     0x7F, 0x04, 0x08, 0x10, 0x7F,  // 46/ --> N
 270:MonoGFX/MonoGFX.c ****     0x3E, 0x41, 0x41, 0x41, 0x3E,  // 47/ --> O
 271:MonoGFX/MonoGFX.c ****     0x7F, 0x09, 0x09, 0x09, 0x06,  // 48/ --> P
 272:MonoGFX/MonoGFX.c ****     0x3E, 0x41, 0x51, 0x21, 0x5E,  // 49/ --> Q
 273:MonoGFX/MonoGFX.c ****     0x7F, 0x09, 0x19, 0x29, 0x46,  // 50/ --> R
ARM GAS  C:\Users\Oleg\AppData\Local\Temp\ccxd6WqM.s 			page 13


 274:MonoGFX/MonoGFX.c ****     0x46, 0x49, 0x49, 0x49, 0x31,  // 51/ --> S
 275:MonoGFX/MonoGFX.c ****     0x01, 0x01, 0x7F, 0x01, 0x01,  // 52/ --> T
 276:MonoGFX/MonoGFX.c ****     0x3F, 0x40, 0x40, 0x40, 0x3F,  // 53/ --> U
 277:MonoGFX/MonoGFX.c ****     0x1F, 0x20, 0x40, 0x20, 0x1F,  // 54/ --> V
 278:MonoGFX/MonoGFX.c ****     0x3F, 0x40, 0x60, 0x40, 0x3F,  // 55/ --> W
 279:MonoGFX/MonoGFX.c ****     0x63, 0x14, 0x08, 0x14, 0x63,  // 56/ --> X
 280:MonoGFX/MonoGFX.c ****     0x07, 0x08, 0x70, 0x08, 0x07,  // 57/ --> Y
 281:MonoGFX/MonoGFX.c ****     0x61, 0x51, 0x49, 0x45, 0x43,  // 58/ --> Z
 282:MonoGFX/MonoGFX.c ****     0x7F, 0x41, 0x41, 0x00, 0x00,  // 59/ --> [
 283:MonoGFX/MonoGFX.c ****     0x15, 0x16, 0x7C, 0x16, 0x15,  // 60/ --> '\'
 284:MonoGFX/MonoGFX.c ****     0x41, 0x41, 0x7F, 0x00, 0x00,  // 61/ --> ]
 285:MonoGFX/MonoGFX.c ****     0x04, 0x02, 0x01, 0x02, 0x04,  // 62/ --> ^
 286:MonoGFX/MonoGFX.c ****     0x40, 0x40, 0x40, 0x40, 0x40,  // 63/ --> _
 287:MonoGFX/MonoGFX.c ****     0x01, 0x02, 0x04, 0x00, 0x00,  // 64/ --> `
 288:MonoGFX/MonoGFX.c ****     0x20, 0x54, 0x54, 0x54, 0x78,  // 65/ --> a
 289:MonoGFX/MonoGFX.c ****     0x7F, 0x44, 0x44, 0x44, 0x38,  // 66/ --> b
 290:MonoGFX/MonoGFX.c ****     0x38, 0x44, 0x44, 0x44, 0x00,  // 67/ --> c
 291:MonoGFX/MonoGFX.c ****     0x38, 0x44, 0x44, 0x48, 0x7F,  // 68/ --> d
 292:MonoGFX/MonoGFX.c ****     0x38, 0x54, 0x54, 0x54, 0x18,  // 69/ --> e
 293:MonoGFX/MonoGFX.c ****     0x10, 0x7E, 0x11, 0x01, 0x02,  // 70/ --> f
 294:MonoGFX/MonoGFX.c ****     0x0C, 0x52, 0x52, 0x52, 0x3E,  // 71/ --> g
 295:MonoGFX/MonoGFX.c ****     0x7F, 0x08, 0x04, 0x04, 0x78,  // 72/ --> h
 296:MonoGFX/MonoGFX.c ****     0x00, 0x44, 0x7D, 0x40, 0x00,  // 73/ --> i
 297:MonoGFX/MonoGFX.c ****     0x20, 0x40, 0x40, 0x3D, 0x00,  // 74/ --> j
 298:MonoGFX/MonoGFX.c ****     0x7F, 0x10, 0x28, 0x44, 0x00,  // 75/ --> k
 299:MonoGFX/MonoGFX.c ****     0x00, 0x41, 0x7F, 0x40, 0x00,  // 76/ --> l
 300:MonoGFX/MonoGFX.c ****     0x7C, 0x04, 0x18, 0x04, 0x78,  // 77/ --> m
 301:MonoGFX/MonoGFX.c ****     0x7C, 0x08, 0x04, 0x04, 0x78,  // 78/ --> n
 302:MonoGFX/MonoGFX.c ****     0x38, 0x44, 0x44, 0x44, 0x38,  // 79/ --> o
 303:MonoGFX/MonoGFX.c ****     0x7C, 0x14, 0x14, 0x14, 0x08,  // 80/ --> p
 304:MonoGFX/MonoGFX.c ****     0x08, 0x14, 0x14, 0x18, 0x7C,  // 81/ --> q
 305:MonoGFX/MonoGFX.c ****     0x7C, 0x08, 0x04, 0x04, 0x08,  // 82/ --> r
 306:MonoGFX/MonoGFX.c ****     0x48, 0x54, 0x54, 0x54, 0x20,  // 83/ --> s
 307:MonoGFX/MonoGFX.c ****     0x04, 0x3F, 0x44, 0x40, 0x20,  // 84/ --> t
 308:MonoGFX/MonoGFX.c ****     0x3C, 0x40, 0x40, 0x20, 0x7C,  // 85/ --> u
 309:MonoGFX/MonoGFX.c ****     0x1C, 0x20, 0x40, 0x20, 0x1C,  // 86/ --> v
 310:MonoGFX/MonoGFX.c ****     0x1E, 0x20, 0x10, 0x20, 0x1E,  // 87/ --> w
 311:MonoGFX/MonoGFX.c ****     0x22, 0x14, 0x08, 0x14, 0x22,  // 88/ --> x
 312:MonoGFX/MonoGFX.c ****     0x06, 0x48, 0x48, 0x48, 0x3E,  // 89/ --> y
 313:MonoGFX/MonoGFX.c ****     0x44, 0x64, 0x54, 0x4C, 0x44,  // 90/ --> z
 314:MonoGFX/MonoGFX.c ****     0x08, 0x36, 0x41, 0x00, 0x00,  // 91/ --> {
 315:MonoGFX/MonoGFX.c ****     0x00, 0x00, 0x7F, 0x00, 0x00,  // 92/ --> |
 316:MonoGFX/MonoGFX.c ****     0x41, 0x36, 0x08, 0x00, 0x00,  // 93/ --> }
 317:MonoGFX/MonoGFX.c ****     0x08, 0x08, 0x2A, 0x1C, 0x08,  // 94/ --> ~
 318:MonoGFX/MonoGFX.c ****     0x7E, 0x11, 0x11, 0x11, 0x7E,  // 95/ --> –ê
 319:MonoGFX/MonoGFX.c ****     0x7F, 0x49, 0x49, 0x49, 0x33,  // 96/ --> –ë
 320:MonoGFX/MonoGFX.c ****     0x7F, 0x49, 0x49, 0x49, 0x36,  // 97/ --> –í
 321:MonoGFX/MonoGFX.c ****     0x7F, 0x01, 0x01, 0x01, 0x03,  // 98/ --> –ì
 322:MonoGFX/MonoGFX.c ****     0xE0, 0x51, 0x4F, 0x41, 0xFF,  // 99/ --> –î
 323:MonoGFX/MonoGFX.c ****     0x7F, 0x49, 0x49, 0x49, 0x41,  // 100/ --> –ï
 324:MonoGFX/MonoGFX.c ****     0x77, 0x08, 0x7F, 0x08, 0x77,  // 101/ --> –ñ
 325:MonoGFX/MonoGFX.c ****     0x41, 0x49, 0x49, 0x49, 0x36,  // 102/ --> –ó
 326:MonoGFX/MonoGFX.c ****     0x7F, 0x10, 0x08, 0x04, 0x7F,  // 103/ --> –ò
 327:MonoGFX/MonoGFX.c ****     0x7C, 0x21, 0x12, 0x09, 0x7C,  // 104/ --> –ô
 328:MonoGFX/MonoGFX.c ****     0x7F, 0x08, 0x14, 0x22, 0x41,  // 105/ --> –ö
 329:MonoGFX/MonoGFX.c ****     0x20, 0x41, 0x3F, 0x01, 0x7F,  // 106/ --> –õ
 330:MonoGFX/MonoGFX.c ****     0x7F, 0x02, 0x0C, 0x02, 0x7F,  // 107/ --> –ú
ARM GAS  C:\Users\Oleg\AppData\Local\Temp\ccxd6WqM.s 			page 14


 331:MonoGFX/MonoGFX.c ****     0x7F, 0x08, 0x08, 0x08, 0x7F,  // 108/ --> –ù
 332:MonoGFX/MonoGFX.c ****     0x3E, 0x41, 0x41, 0x41, 0x3E,  // 109/ --> –û
 333:MonoGFX/MonoGFX.c ****     0x7F, 0x01, 0x01, 0x01, 0x7F,  // 110/ --> –ü
 334:MonoGFX/MonoGFX.c ****     0x7F, 0x09, 0x09, 0x09, 0x06,  // 111/ --> –†
 335:MonoGFX/MonoGFX.c ****     0x3E, 0x41, 0x41, 0x41, 0x22,  // 112/ --> –°
 336:MonoGFX/MonoGFX.c ****     0x01, 0x01, 0x7F, 0x01, 0x01,  // 113/ --> –¢
 337:MonoGFX/MonoGFX.c ****     0x47, 0x28, 0x10, 0x08, 0x07,  // 114/ --> –£
 338:MonoGFX/MonoGFX.c ****     0x1C, 0x22, 0x7F, 0x22, 0x1C,  // 115/ --> –§
 339:MonoGFX/MonoGFX.c ****     0x63, 0x14, 0x08, 0x14, 0x63,  // 116/ --> –•
 340:MonoGFX/MonoGFX.c ****     0x7F, 0x40, 0x40, 0x40, 0xFF,  // 117/ --> –¶
 341:MonoGFX/MonoGFX.c ****     0x07, 0x08, 0x08, 0x08, 0x7F,  // 118/ --> –ß
 342:MonoGFX/MonoGFX.c ****     0x7F, 0x40, 0x7F, 0x40, 0x7F,  // 119/ --> –®
 343:MonoGFX/MonoGFX.c ****     0x7F, 0x40, 0x7F, 0x40, 0xFF,  // 120/ --> –©
 344:MonoGFX/MonoGFX.c ****     0x01, 0x7F, 0x48, 0x48, 0x30,  // 121/ --> –™
 345:MonoGFX/MonoGFX.c ****     0x7F, 0x48, 0x30, 0x00, 0x7F,  // 122/ --> –´
 346:MonoGFX/MonoGFX.c ****     0x00, 0x7F, 0x48, 0x48, 0x30,  // 123/ --> –≠
 347:MonoGFX/MonoGFX.c ****     0x22, 0x41, 0x49, 0x49, 0x3E,  // 124/ --> –¨
 348:MonoGFX/MonoGFX.c ****     0x7F, 0x08, 0x3E, 0x41, 0x3E,  // 125/ --> –Æ
 349:MonoGFX/MonoGFX.c ****     0x46, 0x29, 0x19, 0x09, 0x7f,  // 126/ --> –Ø
 350:MonoGFX/MonoGFX.c ****     0x20, 0x54, 0x54, 0x54, 0x78,  // 127/ --> a
 351:MonoGFX/MonoGFX.c ****     0x3c, 0x4a, 0x4a, 0x49, 0x31,  // 128/ --> –±
 352:MonoGFX/MonoGFX.c ****     0x7c, 0x54, 0x54, 0x28, 0x00,  // 129/ --> –≤
 353:MonoGFX/MonoGFX.c ****     0x7c, 0x04, 0x04, 0x04, 0x0c,  // 130/ --> –≥
 354:MonoGFX/MonoGFX.c ****     0xe0, 0x54, 0x4c, 0x44, 0xfc,  // 131/ --> –¥
 355:MonoGFX/MonoGFX.c ****     0x38, 0x54, 0x54, 0x54, 0x18,  // 132/ --> –µ
 356:MonoGFX/MonoGFX.c ****     0x6c, 0x10, 0x7c, 0x10, 0x6c,  // 133/ --> –∂
 357:MonoGFX/MonoGFX.c ****     0x44, 0x44, 0x54, 0x54, 0x28,  // 134/ --> –∑
 358:MonoGFX/MonoGFX.c ****     0x7c, 0x20, 0x10, 0x08, 0x7c,  // 135/ --> –∏
 359:MonoGFX/MonoGFX.c ****     0x7c, 0x41, 0x22, 0x11, 0x7c,  // 136/ --> –π
 360:MonoGFX/MonoGFX.c ****     0x7c, 0x10, 0x28, 0x44, 0x00,  // 137/ --> –∫
 361:MonoGFX/MonoGFX.c ****     0x20, 0x44, 0x3c, 0x04, 0x7c,  // 138/ --> –ª
 362:MonoGFX/MonoGFX.c ****     0x7c, 0x08, 0x10, 0x08, 0x7c,  // 139/ --> –º
 363:MonoGFX/MonoGFX.c ****     0x7c, 0x10, 0x10, 0x10, 0x7c,  // 140/ --> –Ω
 364:MonoGFX/MonoGFX.c ****     0x38, 0x44, 0x44, 0x44, 0x38,  // 141/ --> –æ
 365:MonoGFX/MonoGFX.c ****     0x7c, 0x04, 0x04, 0x04, 0x7c,  // 142/ --> –ø
 366:MonoGFX/MonoGFX.c ****     0x7C, 0x14, 0x14, 0x14, 0x08,  // 143/ --> —Ä
 367:MonoGFX/MonoGFX.c ****     0x38, 0x44, 0x44, 0x44, 0x28,  // 144/ --> —Å
 368:MonoGFX/MonoGFX.c ****     0x04, 0x04, 0x7c, 0x04, 0x04,  // 145/ --> —Ç
 369:MonoGFX/MonoGFX.c ****     0x0C, 0x50, 0x50, 0x50, 0x3C,  // 146/ --> —É
 370:MonoGFX/MonoGFX.c ****     0x30, 0x48, 0xfc, 0x48, 0x30,  // 147/ --> —Ñ
 371:MonoGFX/MonoGFX.c ****     0x44, 0x28, 0x10, 0x28, 0x44,  // 148/ --> —Ö
 372:MonoGFX/MonoGFX.c ****     0x7c, 0x40, 0x40, 0x40, 0xfc,  // 149/ --> —Ü
 373:MonoGFX/MonoGFX.c ****     0x0c, 0x10, 0x10, 0x10, 0x7c,  // 150/ --> —á
 374:MonoGFX/MonoGFX.c ****     0x7c, 0x40, 0x7c, 0x40, 0x7c,  // 151/ --> —à
 375:MonoGFX/MonoGFX.c ****     0x7c, 0x40, 0x7c, 0x40, 0xfc,  // 152/ --> —â
 376:MonoGFX/MonoGFX.c ****     0x04, 0x7c, 0x50, 0x50, 0x20,  // 153/ --> —ä
 377:MonoGFX/MonoGFX.c ****     0x7c, 0x50, 0x50, 0x20, 0x7c,  // 154/ --> —ã
 378:MonoGFX/MonoGFX.c ****     0x7c, 0x50, 0x50, 0x20, 0x00,  // 155/ --> —ç
 379:MonoGFX/MonoGFX.c ****     0x28, 0x44, 0x54, 0x54, 0x38,  // 156/ --> —å
 380:MonoGFX/MonoGFX.c ****     0x7c, 0x10, 0x38, 0x44, 0x38,  // 157/ --> —é
 381:MonoGFX/MonoGFX.c ****     0x08, 0x54, 0x34, 0x14, 0x7c,  // 158/ --> —è
 382:MonoGFX/MonoGFX.c ****     0x7E, 0x4B, 0x4A, 0x4B, 0x42,  // 159/ --> –Å
 383:MonoGFX/MonoGFX.c ****     0x38, 0x55, 0x54, 0x55, 0x18,  // 160/ --> —ë
 384:MonoGFX/MonoGFX.c ****     0x00, 0x06, 0x09, 0x09, 0x06,  // 161/ --> ¬∞
 385:MonoGFX/MonoGFX.c **** };
 386:MonoGFX/MonoGFX.c **** 
 387:MonoGFX/MonoGFX.c **** /******************************** –†–ê–ë–û–¢–ê –° –î–†–ê–ô–í–ï–†–û–ú –î–ò–°–ü–õ–ï–Ø ***************
ARM GAS  C:\Users\Oleg\AppData\Local\Temp\ccxd6WqM.s 			page 15


 388:MonoGFX/MonoGFX.c **** 
 389:MonoGFX/MonoGFX.c **** #if defined(ST7565r)
 390:MonoGFX/MonoGFX.c **** /**
 391:MonoGFX/MonoGFX.c ****  ******************************************************************************
 392:MonoGFX/MonoGFX.c ****  *  @breif –§—É–Ω–∫—Ü–∏—è –æ—Ç–ø—Ä–∞–≤–∫–∏ –∫–æ–º–∞–Ω–¥—ã –Ω–∞ –¥–∏—Å–ø–ª–µ–π
 393:MonoGFX/MonoGFX.c ****  *  @param  uint8_t Command - 8 –±–∏—Ç –¥–∞–Ω–Ω—ã—Ö
 394:MonoGFX/MonoGFX.c ****  ******************************************************************************
 395:MonoGFX/MonoGFX.c ****  */
 396:MonoGFX/MonoGFX.c **** 
 397:MonoGFX/MonoGFX.c **** static void MonoGFX_Send_command(uint8_t Command) {
 398:MonoGFX/MonoGFX.c **** #if defined(USE_CMSIS)
 399:MonoGFX/MonoGFX.c ****     DC_ON;
 400:MonoGFX/MonoGFX.c ****     CMSIS_SPI_Data_Transmit_8BIT(SPI1, &Command, 1, 100);
 401:MonoGFX/MonoGFX.c ****     DC_OFF;
 402:MonoGFX/MonoGFX.c **** #elif defined(USE_HAL)
 403:MonoGFX/MonoGFX.c ****     DC_ON;
 404:MonoGFX/MonoGFX.c ****     HAL_SPI_Transmit(&hspi1, &Command, 1, HAL_MAX_DELAY);
 405:MonoGFX/MonoGFX.c ****     while (HAL_SPI_GetState(&hspi1) != HAL_SPI_STATE_READY);
 406:MonoGFX/MonoGFX.c ****     DC_OFF;
 407:MonoGFX/MonoGFX.c **** #endif
 408:MonoGFX/MonoGFX.c **** }
 409:MonoGFX/MonoGFX.c **** 
 410:MonoGFX/MonoGFX.c **** /**
 411:MonoGFX/MonoGFX.c ****  ******************************************************************************
 412:MonoGFX/MonoGFX.c ****  *  @breif –§—É–Ω–∫—Ü–∏—è –æ—Ç–ø—Ä–∞–≤–∫–∏ –¥–∞–Ω–Ω—ã—Ö –Ω–∞ –¥–∏—Å–ø–ª–µ–π
 413:MonoGFX/MonoGFX.c ****  *  @param  uint8_t Dat - 8 –±–∏—Ç –¥–∞–Ω–Ω—ã—Ö
 414:MonoGFX/MonoGFX.c ****  ******************************************************************************
 415:MonoGFX/MonoGFX.c ****  */
 416:MonoGFX/MonoGFX.c **** 
 417:MonoGFX/MonoGFX.c **** static void MonoGFX_Send_data(uint8_t Dat) {
 418:MonoGFX/MonoGFX.c **** #if defined(USE_CMSIS)
 419:MonoGFX/MonoGFX.c ****     CMSIS_SPI_Data_Transmit_8BIT(SPI1, &Dat, 1, 100);
 420:MonoGFX/MonoGFX.c **** #elif defined(USE_HAL)
 421:MonoGFX/MonoGFX.c ****     HAL_SPI_Transmit(&hspi1, &Dat, 1, HAL_MAX_DELAY);
 422:MonoGFX/MonoGFX.c ****     while (HAL_SPI_GetState(&hspi1) != HAL_SPI_STATE_READY);
 423:MonoGFX/MonoGFX.c **** #endif
 424:MonoGFX/MonoGFX.c **** }
 425:MonoGFX/MonoGFX.c **** 
 426:MonoGFX/MonoGFX.c **** /**
 427:MonoGFX/MonoGFX.c ****  ******************************************************************************
 428:MonoGFX/MonoGFX.c ****  *  @breif –§—É–Ω–∫—Ü–∏—è –∏–Ω–∏—Ü–∏–∞–ª–∏–∑–∞—Ü–∏–∏ –¥–∏—Å–ø–ª–µ—è
 429:MonoGFX/MonoGFX.c ****  ******************************************************************************
 430:MonoGFX/MonoGFX.c ****  */
 431:MonoGFX/MonoGFX.c **** 
 432:MonoGFX/MonoGFX.c **** #if defined(USE_CMSIS)
 433:MonoGFX/MonoGFX.c **** void MonoGFX_Init(void) {
 434:MonoGFX/MonoGFX.c ****     /// –§—É–Ω–∫—Ü–∏—è –∏–Ω–∏—Ü–∏–∞–ª–∏–∑–∞—Ü–∏–∏ –¥–∏—Å–ø–ª–µ—è
 435:MonoGFX/MonoGFX.c ****     CS_ON;
 436:MonoGFX/MonoGFX.c ****     RST_ON;
 437:MonoGFX/MonoGFX.c ****     Delay_ms(10);
 438:MonoGFX/MonoGFX.c ****     RST_OFF;
 439:MonoGFX/MonoGFX.c ****     Delay_ms(10);
 440:MonoGFX/MonoGFX.c ****     // –£—Å—Ç–∞–Ω–æ–≤–∏—Ç–µ —Ä–∞–±–æ—á–∏–π —Ü–∏–∫–ª ( 1/7 bias –∏–ª–∏ 1/9 bias ) –≤ –∑–∞–≤–∏—Å–∏–º–
 441:MonoGFX/MonoGFX.c ****     MonoGFX_Send_command(ST7565r_BIAS9);
 442:MonoGFX/MonoGFX.c ****     Delay_ms(1);
 443:MonoGFX/MonoGFX.c ****     // –£—Å—Ç–∞–Ω–æ–≤–∏—Ç–µ –≥–æ—Ä–∏–∑–æ–Ω—Ç–∞–ª—å–Ω—É—é –∏ –≤–µ—Ä—Ç–∏–∫–∞–ª—å–Ω—É—é –æ—Ä–∏–µ–Ω—Ç–∞
 444:MonoGFX/MonoGFX.c ****     MonoGFX_Send_command(ST7565r_SEG_NORMAL);   // ADC selection(SEG0->SEG128)
ARM GAS  C:\Users\Oleg\AppData\Local\Temp\ccxd6WqM.s 			page 16


 445:MonoGFX/MonoGFX.c ****     MonoGFX_Send_command(ST7565r_COM_REVERSE);  // SHL selection(COM0->COM64)
 446:MonoGFX/MonoGFX.c ****     Delay_ms(1);
 447:MonoGFX/MonoGFX.c ****     // –¥–µ–ª–∏—Ç–µ–ª—å –≤–Ω—É—Ç—Ä–µ–Ω–Ω–µ–≥–æ —Ä–µ–∑–∏—Å—Ç–æ—Ä–∞ —É—Å—Ç–∞–Ω–æ–≤–ª–µ–Ω –Ω–∞ 7 (–æ—Ç
 448:MonoGFX/MonoGFX.c ****     MonoGFX_Send_command(0x20 | 0x7);  // Regulator Resistor Selection
 449:MonoGFX/MonoGFX.c ****     Delay_ms(1);
 450:MonoGFX/MonoGFX.c ****     // —É–ø—Ä–∞–≤–ª–µ–Ω–∏–µ –ø–∏—Ç–∞–Ω–∏–µ–º, –≤—Å–µ –≤–Ω—É—Ç—Ä–µ–Ω–Ω–∏–µ –±–ª–æ–∫–∏ –≤–∫–ª—é—á–µ–Ω
 451:MonoGFX/MonoGFX.c ****     MonoGFX_Send_command(0x28 | 0x7);
 452:MonoGFX/MonoGFX.c ****     Delay_ms(1);
 453:MonoGFX/MonoGFX.c ****     // –≤–æ–π—Ç–∏ –≤ —Ä–µ–∂–∏–º –¥–∏–Ω–∞–º–∏—á–µ—Å–∫–æ–≥–æ –∫–æ–Ω—Ç—Ä–∞—Å—Ç–∞
 454:MonoGFX/MonoGFX.c ****     MonoGFX_Send_command(ST7565r_SET_EV_CMD);  // Electronic Volume
 455:MonoGFX/MonoGFX.c ****     MonoGFX_Send_command(18);                  // –ù–∞—Å—Ç—Ä–æ–π–∫–∞ –∫–æ–Ω—Ç—Ä–∞—Å—Ç–∞. –û—Ç—Ä–µ–≥
 456:MonoGFX/MonoGFX.c ****     Delay_ms(1);
 457:MonoGFX/MonoGFX.c ****     MonoGFX_Send_command(ST7565r_SET_START_LINE);
 458:MonoGFX/MonoGFX.c ****     Delay_ms(1);
 459:MonoGFX/MonoGFX.c ****     // CMD_DISPLAY_ON  CMD_DISPLAY_OFF
 460:MonoGFX/MonoGFX.c ****     MonoGFX_Send_command(ST7565r_DISPLAY_ON);  // Display on
 461:MonoGFX/MonoGFX.c ****     // –ò–Ω–≤–µ—Ä—Ç–∏—Ä–æ–≤–∞–Ω–∏–µ —ç–∫—Ä–∞–Ω–∞
 462:MonoGFX/MonoGFX.c ****     MonoGFX_Send_command(ST7565r_COLOR_NORMAL);  // 0xA6 - nomal, 0xA7 - revers
 463:MonoGFX/MonoGFX.c ****     Delay_ms(1);
 464:MonoGFX/MonoGFX.c ****     CS_OFF;
 465:MonoGFX/MonoGFX.c **** }
 466:MonoGFX/MonoGFX.c **** #elif defined(USE_HAL)
 467:MonoGFX/MonoGFX.c **** void MonoGFX_Init(void) {
 468:MonoGFX/MonoGFX.c ****     /// –§—É–Ω–∫—Ü–∏—è –∏–Ω–∏—Ü–∏–∞–ª–∏–∑–∞—Ü–∏–∏ –¥–∏—Å–ø–ª–µ—è
 469:MonoGFX/MonoGFX.c ****     CS_ON;
 470:MonoGFX/MonoGFX.c ****     RST_ON;
 471:MonoGFX/MonoGFX.c ****     HAL_Delay(10);
 472:MonoGFX/MonoGFX.c ****     RST_OFF;
 473:MonoGFX/MonoGFX.c ****     HAL_Delay(10);
 474:MonoGFX/MonoGFX.c ****     // –£—Å—Ç–∞–Ω–æ–≤–∏—Ç–µ —Ä–∞–±–æ—á–∏–π —Ü–∏–∫–ª ( 1/7 –∏–ª–∏ 1/9 ) –≤ –∑–∞–≤–∏—Å–∏–º–æ—Å—Ç–∏ –æ
 475:MonoGFX/MonoGFX.c ****     MonoGFX_Send_command(0xA2);
 476:MonoGFX/MonoGFX.c ****     HAL_Delay(1);
 477:MonoGFX/MonoGFX.c ****     // –£—Å—Ç–∞–Ω–æ–≤–∏—Ç–µ –≥–æ—Ä–∏–∑–æ–Ω—Ç–∞–ª—å–Ω—É—é –∏ –≤–µ—Ä—Ç–∏–∫–∞–ª—å–Ω—É—é –æ—Ä–∏–µ–Ω—Ç–∞
 478:MonoGFX/MonoGFX.c ****     MonoGFX_Send_command(0xA0);  // ADC selection(SEG0->SEG128)
 479:MonoGFX/MonoGFX.c ****     MonoGFX_Send_command(0xC8);  // SHL selection(COM0->COM64)
 480:MonoGFX/MonoGFX.c ****     HAL_Delay(1);
 481:MonoGFX/MonoGFX.c ****     // –¥–µ–ª–∏—Ç–µ–ª—å –≤–Ω—É—Ç—Ä–µ–Ω–Ω–µ–≥–æ —Ä–µ–∑–∏—Å—Ç–æ—Ä–∞ —É—Å—Ç–∞–Ω–æ–≤–ª–µ–Ω –Ω–∞ 7 (–æ—Ç
 482:MonoGFX/MonoGFX.c ****     MonoGFX_Send_command(0x20 | 0x7);  // Regulator Resistor Selection
 483:MonoGFX/MonoGFX.c ****     HAL_Delay(1);
 484:MonoGFX/MonoGFX.c ****     // —É–ø—Ä–∞–≤–ª–µ–Ω–∏–µ –ø–∏—Ç–∞–Ω–∏–µ–º, –≤—Å–µ –≤–Ω—É—Ç—Ä–µ–Ω–Ω–∏–µ –±–ª–æ–∫–∏ –≤–∫–ª—é—á–µ–Ω
 485:MonoGFX/MonoGFX.c ****     MonoGFX_Send_command(0x28 | 0x7);
 486:MonoGFX/MonoGFX.c ****     HAL_Delay(1);
 487:MonoGFX/MonoGFX.c ****     // –≤–æ–π—Ç–∏ –≤ —Ä–µ–∂–∏–º –¥–∏–Ω–∞–º–∏—á–µ—Å–∫–æ–≥–æ –∫–æ–Ω—Ç—Ä–∞—Å—Ç–∞
 488:MonoGFX/MonoGFX.c ****     MonoGFX_Send_command(0x81);  // Electronic Volume
 489:MonoGFX/MonoGFX.c ****     MonoGFX_Send_command(18);    // –ù–∞—Å—Ç—Ä–æ–π–∫–∞ –∫–æ–Ω—Ç—Ä–∞—Å—Ç–∞. –û—Ç—Ä–µ–≥—É–ª–∏—Ä—É–π—Ç
 490:MonoGFX/MonoGFX.c ****     HAL_Delay(1);
 491:MonoGFX/MonoGFX.c ****     MonoGFX_Send_command(0x40);
 492:MonoGFX/MonoGFX.c ****     HAL_Delay(1);
 493:MonoGFX/MonoGFX.c ****     // CMD_DISPLAY_ON  CMD_DISPLAY_OFF
 494:MonoGFX/MonoGFX.c ****     MonoGFX_Send_command(0xAF);  // Display on
 495:MonoGFX/MonoGFX.c ****     // –ò–Ω–≤–µ—Ä—Ç–∏—Ä–æ–≤–∞–Ω–∏–µ —ç–∫—Ä–∞–Ω–∞
 496:MonoGFX/MonoGFX.c ****     MonoGFX_Send_command(0xA6);  // 0xA6 - nomal, 0xA7 - revers
 497:MonoGFX/MonoGFX.c ****     HAL_Delay(1);
 498:MonoGFX/MonoGFX.c ****     CS_OFF;
 499:MonoGFX/MonoGFX.c **** }
 500:MonoGFX/MonoGFX.c **** #endif
 501:MonoGFX/MonoGFX.c **** 
ARM GAS  C:\Users\Oleg\AppData\Local\Temp\ccxd6WqM.s 			page 17


 502:MonoGFX/MonoGFX.c **** /**
 503:MonoGFX/MonoGFX.c ****  ******************************************************************************
 504:MonoGFX/MonoGFX.c ****  *  @breif –§—É–Ω–∫—Ü–∏—è –≤—ã–≤–æ–¥–∞ –∏–∑–æ–±—Ä–∞–∂–µ–Ω–∏—è —Å —É–∫–∞–∑–∞–Ω–∏–µ–º –µ–≥–æ —Ä–∞–∑–º
 505:MonoGFX/MonoGFX.c ****  *  @param  const uint8_t *bitmap - –º–∞—Å—Å–∏–≤ —Å –∏–∑–æ–±—Ä–∞–∂–µ–Ω–∏–µ–º
 506:MonoGFX/MonoGFX.c ****  *  @param  int8_t x - –Ω–∞—á–∞–ª—å–Ω–∞—è –∫–æ–æ—Ä–¥–∏–Ω–∞—Ç–∞ –ø–æ x
 507:MonoGFX/MonoGFX.c ****  *  @param  int8_t y - –Ω–∞—á–∞–ª—å–Ω–∞—è –∫–æ–æ—Ä–¥–∏–Ω–∞—Ç–∞ –ø–æ y
 508:MonoGFX/MonoGFX.c ****  *  @param  int8_t w - —à–∏—Ä–∏–Ω–∞ –∏–∑–æ–±—Ä–∞–∂–µ–Ω–∏—è –≤ –ø–∏–∫—Å–µ–ª—è—Ö
 509:MonoGFX/MonoGFX.c ****  *  @param  int8_t h - –≤—ã—Å–æ—Ç–∞ –∏–∑–æ–±—Ä–∞–∂–µ–Ω–∏—è –≤ –ø–∏–∫—Å–µ–ª—è—Ö
 510:MonoGFX/MonoGFX.c ****  ******************************************************************************
 511:MonoGFX/MonoGFX.c ****  */
 512:MonoGFX/MonoGFX.c **** 
 513:MonoGFX/MonoGFX.c **** void MonoGFX_DrawBitmap(const uint8_t *bitmap, int8_t x, int8_t y, int8_t w, int8_t h) {
 514:MonoGFX/MonoGFX.c ****     int16_t byteWidth = (w + 7) / 8;  // Bitmap scanline pad = whole byte
 515:MonoGFX/MonoGFX.c ****     uint8_t byte = 0;
 516:MonoGFX/MonoGFX.c **** 
 517:MonoGFX/MonoGFX.c ****     for (int16_t j = 0; j < h; j++, y++) {
 518:MonoGFX/MonoGFX.c ****         for (int16_t i = 0; i < w; i++) {
 519:MonoGFX/MonoGFX.c ****             if (i & 7) {
 520:MonoGFX/MonoGFX.c ****                 byte <<= 1;
 521:MonoGFX/MonoGFX.c ****             } else {
 522:MonoGFX/MonoGFX.c ****                 byte = (*(const unsigned char *)(&bitmap[j * byteWidth + i / 8]));
 523:MonoGFX/MonoGFX.c ****             }
 524:MonoGFX/MonoGFX.c **** 
 525:MonoGFX/MonoGFX.c ****             if (byte & 0x80) {
 526:MonoGFX/MonoGFX.c ****                 MonoGFX_Draw_pixel(x + i, y, 1);
 527:MonoGFX/MonoGFX.c ****             }
 528:MonoGFX/MonoGFX.c ****         }
 529:MonoGFX/MonoGFX.c ****     }
 530:MonoGFX/MonoGFX.c **** }
 531:MonoGFX/MonoGFX.c **** 
 532:MonoGFX/MonoGFX.c **** /**
 533:MonoGFX/MonoGFX.c ****  ******************************************************************************
 534:MonoGFX/MonoGFX.c ****  *  @breif –§—É–Ω–∫—Ü–∏—è —Ä–∏—Å–æ–≤–∞–Ω–∏—è –ø–∏–∫—Å–µ–ª—è
 535:MonoGFX/MonoGFX.c ****  *  @param  int16_t x - –Ω–∞—á–∞–ª—å–Ω–∞—è –∫–æ–æ—Ä–¥–∏–Ω–∞—Ç–∞ –ø–æ x
 536:MonoGFX/MonoGFX.c ****  *  @param  int16_t y - –Ω–∞—á–∞–ª—å–Ω–∞—è –∫–æ–æ—Ä–¥–∏–Ω–∞—Ç–∞ –ø–æ y
 537:MonoGFX/MonoGFX.c ****  *  @param  uint8_t color - —Ü–≤–µ—Ç —Ç–æ—á–∫–∏. (1/0)
 538:MonoGFX/MonoGFX.c ****  ******************************************************************************
 539:MonoGFX/MonoGFX.c ****  */
 540:MonoGFX/MonoGFX.c **** 
 541:MonoGFX/MonoGFX.c **** void MonoGFX_Draw_pixel(int16_t x, int16_t y, uint8_t color) {
 542:MonoGFX/MonoGFX.c ****     if (x >= MonoGFX_width || x < 0 || y >= MonoGFX_height || y < 0) {
 543:MonoGFX/MonoGFX.c ****         return;
 544:MonoGFX/MonoGFX.c ****     } else {
 545:MonoGFX/MonoGFX.c ****         uint16_t array_pos = x + ((y / 8) * MonoGFX_width);
 546:MonoGFX/MonoGFX.c **** 
 547:MonoGFX/MonoGFX.c ****         if (color) {
 548:MonoGFX/MonoGFX.c ****             MonoGFX_Frame_buffer[array_pos] |= 1 << (y % 8);
 549:MonoGFX/MonoGFX.c ****         } else {
 550:MonoGFX/MonoGFX.c ****             MonoGFX_Frame_buffer[array_pos] &= 0xFF ^ 1 << (y % 8);
 551:MonoGFX/MonoGFX.c ****         }
 552:MonoGFX/MonoGFX.c ****     }
 553:MonoGFX/MonoGFX.c **** }
 554:MonoGFX/MonoGFX.c **** 
 555:MonoGFX/MonoGFX.c **** /**
 556:MonoGFX/MonoGFX.c ****  ******************************************************************************
 557:MonoGFX/MonoGFX.c ****  *  @breif –§—É–Ω–∫—Ü–∏—è –≤—ã–≤–æ–¥–∞ –±—É—Ñ–µ—Ä–∞ –∫–∞–¥—Ä–∞ –Ω–∞ –¥–∏—Å–ø–ª–µ–π
 558:MonoGFX/MonoGFX.c ****  ******************************************************************************
ARM GAS  C:\Users\Oleg\AppData\Local\Temp\ccxd6WqM.s 			page 18


 559:MonoGFX/MonoGFX.c ****  */
 560:MonoGFX/MonoGFX.c **** 
 561:MonoGFX/MonoGFX.c **** void MonoGFX_Update(void) {
 562:MonoGFX/MonoGFX.c ****     CS_ON;
 563:MonoGFX/MonoGFX.c ****     for (uint8_t y = 0; y < 8; y++) {
 564:MonoGFX/MonoGFX.c ****         ST7565_SetX(0);
 565:MonoGFX/MonoGFX.c ****         ST7565_SetY((int16_t)y);
 566:MonoGFX/MonoGFX.c ****         for (uint8_t x = 0; x < 128; x++) {
 567:MonoGFX/MonoGFX.c ****             MonoGFX_Send_data(MonoGFX_Frame_buffer[x + 128 * y]);
 568:MonoGFX/MonoGFX.c ****         }
 569:MonoGFX/MonoGFX.c ****     }
 570:MonoGFX/MonoGFX.c ****     CS_OFF;
 571:MonoGFX/MonoGFX.c **** }
 572:MonoGFX/MonoGFX.c **** /*---------------------–§—É–Ω–∫—Ü–∏—è –≤—ã–≤–æ–¥–∞ –±—É—Ñ–µ—Ä–∞ –∫–∞–¥—Ä–∞ –Ω–∞ –¥–∏—Å–ø–ª–µ–π-----
 573:MonoGFX/MonoGFX.c **** 
 574:MonoGFX/MonoGFX.c **** #elif defined(ST7567)
 575:MonoGFX/MonoGFX.c **** 
 576:MonoGFX/MonoGFX.c **** //static uint8_t ST7567A_column_offset = 4;  // –Ω–∞—á–∞–ª—å–Ω–æ–µ —Å–º–µ—â–µ–Ω–∏–µ
 577:MonoGFX/MonoGFX.c **** //static ST7567A_pos_t ST7567A;
 578:MonoGFX/MonoGFX.c **** /**
 579:MonoGFX/MonoGFX.c ****  ******************************************************************************
 580:MonoGFX/MonoGFX.c ****  *  @breif –§—É–Ω–∫—Ü–∏—è –æ—Ç–ø—Ä–∞–≤–∫–∏ –∫–æ–º–∞–Ω–¥—ã –Ω–∞ –¥–∏—Å–ø–ª–µ–π
 581:MonoGFX/MonoGFX.c ****  *  @param  uint8_t Command - 8 –±–∏—Ç –¥–∞–Ω–Ω—ã—Ö
 582:MonoGFX/MonoGFX.c ****  ******************************************************************************
 583:MonoGFX/MonoGFX.c ****  */
 584:MonoGFX/MonoGFX.c **** 
 585:MonoGFX/MonoGFX.c **** static void MonoGFX_Send_command(uint8_t Command) {
 165              		.loc 1 585 51
 166              		.cfi_startproc
 167              		@ args = 0, pretend = 0, frame = 8
 168              		@ frame_needed = 1, uses_anonymous_args = 0
 169 0000 80B5     		push	{r7, lr}
 170              		.cfi_def_cfa_offset 8
 171              		.cfi_offset 7, -8
 172              		.cfi_offset 14, -4
 173 0002 82B0     		sub	sp, sp, #8
 174              		.cfi_def_cfa_offset 16
 175 0004 00AF     		add	r7, sp, #0
 176              		.cfi_def_cfa_register 7
 177 0006 0346     		mov	r3, r0
 178 0008 FB71     		strb	r3, [r7, #7]
 586:MonoGFX/MonoGFX.c **** #if defined(USE_CMSIS)
 587:MonoGFX/MonoGFX.c ****     DC_ON;
 179              		.loc 1 587 5
 180 000a 084B     		ldr	r3, .L2
 181 000c 4FF48012 		mov	r2, #1048576
 182 0010 1A61     		str	r2, [r3, #16]
 588:MonoGFX/MonoGFX.c ****     CMSIS_SPI_Data_Transmit_8BIT(SPI1, &Command, 1, 100);
 183              		.loc 1 588 5
 184 0012 F91D     		adds	r1, r7, #7
 185 0014 6423     		movs	r3, #100
 186 0016 0122     		movs	r2, #1
 187 0018 0548     		ldr	r0, .L2+4
 188 001a FFF7FEFF 		bl	CMSIS_SPI_Data_Transmit_8BIT
 589:MonoGFX/MonoGFX.c ****     DC_OFF;
 189              		.loc 1 589 5
 190 001e 034B     		ldr	r3, .L2
ARM GAS  C:\Users\Oleg\AppData\Local\Temp\ccxd6WqM.s 			page 19


 191 0020 1022     		movs	r2, #16
 192 0022 1A61     		str	r2, [r3, #16]
 590:MonoGFX/MonoGFX.c **** #elif defined(USE_HAL)
 591:MonoGFX/MonoGFX.c ****     DC_ON;
 592:MonoGFX/MonoGFX.c ****     HAL_SPI_Transmit(&hspi1, &Command, 1, HAL_MAX_DELAY);
 593:MonoGFX/MonoGFX.c ****     while (HAL_SPI_GetState(&hspi1) != HAL_SPI_STATE_READY);
 594:MonoGFX/MonoGFX.c ****     DC_OFF;
 595:MonoGFX/MonoGFX.c **** #endif
 596:MonoGFX/MonoGFX.c **** }
 193              		.loc 1 596 1
 194 0024 00BF     		nop
 195 0026 0837     		adds	r7, r7, #8
 196              		.cfi_def_cfa_offset 8
 197 0028 BD46     		mov	sp, r7
 198              		.cfi_def_cfa_register 13
 199              		@ sp needed
 200 002a 80BD     		pop	{r7, pc}
 201              	.L3:
 202              		.align	2
 203              	.L2:
 204 002c 00080140 		.word	1073809408
 205 0030 00300140 		.word	1073819648
 206              		.cfi_endproc
 207              	.LFE68:
 209              		.section	.text.MonoGFX_Send_data,"ax",%progbits
 210              		.align	1
 211              		.syntax unified
 212              		.thumb
 213              		.thumb_func
 215              	MonoGFX_Send_data:
 216              	.LFB69:
 597:MonoGFX/MonoGFX.c **** 
 598:MonoGFX/MonoGFX.c **** /**
 599:MonoGFX/MonoGFX.c ****  ******************************************************************************
 600:MonoGFX/MonoGFX.c ****  *  @breif –§—É–Ω–∫—Ü–∏—è –æ—Ç–ø—Ä–∞–≤–∫–∏ –¥–∞–Ω–Ω—ã—Ö –Ω–∞ –¥–∏—Å–ø–ª–µ–π
 601:MonoGFX/MonoGFX.c ****  *  @param  uint8_t Dat - 8 –±–∏—Ç –¥–∞–Ω–Ω—ã—Ö
 602:MonoGFX/MonoGFX.c ****  ******************************************************************************
 603:MonoGFX/MonoGFX.c ****  */
 604:MonoGFX/MonoGFX.c **** 
 605:MonoGFX/MonoGFX.c **** static void MonoGFX_Send_data(uint8_t Dat) {
 217              		.loc 1 605 44
 218              		.cfi_startproc
 219              		@ args = 0, pretend = 0, frame = 8
 220              		@ frame_needed = 1, uses_anonymous_args = 0
 221 0000 80B5     		push	{r7, lr}
 222              		.cfi_def_cfa_offset 8
 223              		.cfi_offset 7, -8
 224              		.cfi_offset 14, -4
 225 0002 82B0     		sub	sp, sp, #8
 226              		.cfi_def_cfa_offset 16
 227 0004 00AF     		add	r7, sp, #0
 228              		.cfi_def_cfa_register 7
 229 0006 0346     		mov	r3, r0
 230 0008 FB71     		strb	r3, [r7, #7]
 606:MonoGFX/MonoGFX.c **** #if defined(USE_CMSIS)
 607:MonoGFX/MonoGFX.c ****     CMSIS_SPI_Data_Transmit_8BIT(SPI1, &Dat, 1, 100);
 231              		.loc 1 607 5
ARM GAS  C:\Users\Oleg\AppData\Local\Temp\ccxd6WqM.s 			page 20


 232 000a F91D     		adds	r1, r7, #7
 233 000c 6423     		movs	r3, #100
 234 000e 0122     		movs	r2, #1
 235 0010 0348     		ldr	r0, .L5
 236 0012 FFF7FEFF 		bl	CMSIS_SPI_Data_Transmit_8BIT
 608:MonoGFX/MonoGFX.c **** #elif defined(USE_HAL)
 609:MonoGFX/MonoGFX.c ****     HAL_SPI_Transmit(&hspi1, &Dat, 1, HAL_MAX_DELAY);
 610:MonoGFX/MonoGFX.c ****     while (HAL_SPI_GetState(&hspi1) != HAL_SPI_STATE_READY);
 611:MonoGFX/MonoGFX.c **** #endif
 612:MonoGFX/MonoGFX.c **** }
 237              		.loc 1 612 1
 238 0016 00BF     		nop
 239 0018 0837     		adds	r7, r7, #8
 240              		.cfi_def_cfa_offset 8
 241 001a BD46     		mov	sp, r7
 242              		.cfi_def_cfa_register 13
 243              		@ sp needed
 244 001c 80BD     		pop	{r7, pc}
 245              	.L6:
 246 001e 00BF     		.align	2
 247              	.L5:
 248 0020 00300140 		.word	1073819648
 249              		.cfi_endproc
 250              	.LFE69:
 252              		.section	.text.MonoGFX_Init,"ax",%progbits
 253              		.align	1
 254              		.global	MonoGFX_Init
 255              		.syntax unified
 256              		.thumb
 257              		.thumb_func
 259              	MonoGFX_Init:
 260              	.LFB70:
 613:MonoGFX/MonoGFX.c **** 
 614:MonoGFX/MonoGFX.c **** /**
 615:MonoGFX/MonoGFX.c ****  ******************************************************************************
 616:MonoGFX/MonoGFX.c ****  *  @breif –§—É–Ω–∫—Ü–∏—è –∏–Ω–∏—Ü–∏–∞–ª–∏–∑–∞—Ü–∏–∏ –¥–∏—Å–ø–ª–µ—è
 617:MonoGFX/MonoGFX.c ****  ******************************************************************************
 618:MonoGFX/MonoGFX.c ****  */
 619:MonoGFX/MonoGFX.c **** 
 620:MonoGFX/MonoGFX.c **** #if defined(USE_CMSIS)
 621:MonoGFX/MonoGFX.c **** void MonoGFX_Init(void) {
 261              		.loc 1 621 25
 262              		.cfi_startproc
 263              		@ args = 0, pretend = 0, frame = 0
 264              		@ frame_needed = 1, uses_anonymous_args = 0
 265 0000 80B5     		push	{r7, lr}
 266              		.cfi_def_cfa_offset 8
 267              		.cfi_offset 7, -8
 268              		.cfi_offset 14, -4
 269 0002 00AF     		add	r7, sp, #0
 270              		.cfi_def_cfa_register 7
 622:MonoGFX/MonoGFX.c ****     /// –§—É–Ω–∫—Ü–∏—è –∏–Ω–∏—Ü–∏–∞–ª–∏–∑–∞—Ü–∏–∏ –¥–∏—Å–ø–ª–µ—è
 623:MonoGFX/MonoGFX.c ****     CS_ON;
 271              		.loc 1 623 5
 272 0004 244B     		ldr	r3, .L8
 273 0006 4FF48022 		mov	r2, #262144
 274 000a 1A61     		str	r2, [r3, #16]
ARM GAS  C:\Users\Oleg\AppData\Local\Temp\ccxd6WqM.s 			page 21


 624:MonoGFX/MonoGFX.c ****     RST_ON;
 275              		.loc 1 624 5
 276 000c 224B     		ldr	r3, .L8
 277 000e 4FF40022 		mov	r2, #524288
 278 0012 1A61     		str	r2, [r3, #16]
 625:MonoGFX/MonoGFX.c ****     Delay_ms(10);
 279              		.loc 1 625 5
 280 0014 0A20     		movs	r0, #10
 281 0016 FFF7FEFF 		bl	Delay_ms
 626:MonoGFX/MonoGFX.c ****     RST_OFF;
 282              		.loc 1 626 5
 283 001a 1F4B     		ldr	r3, .L8
 284 001c 0822     		movs	r2, #8
 285 001e 1A61     		str	r2, [r3, #16]
 627:MonoGFX/MonoGFX.c ****     Delay_ms(10);
 286              		.loc 1 627 5
 287 0020 0A20     		movs	r0, #10
 288 0022 FFF7FEFF 		bl	Delay_ms
 628:MonoGFX/MonoGFX.c ****     // –£—Å—Ç–∞–Ω–æ–≤–∏—Ç–µ —Ä–∞–±–æ—á–∏–π —Ü–∏–∫–ª ( 1/7 bias –∏–ª–∏ 1/9 bias ) –≤ –∑–∞–≤–∏—Å–∏–º–
 629:MonoGFX/MonoGFX.c ****     MonoGFX_Send_command(ST7567A_BIAS9);
 289              		.loc 1 629 5
 290 0026 A220     		movs	r0, #162
 291 0028 FFF7FEFF 		bl	MonoGFX_Send_command
 630:MonoGFX/MonoGFX.c ****     Delay_ms(1);
 292              		.loc 1 630 5
 293 002c 0120     		movs	r0, #1
 294 002e FFF7FEFF 		bl	Delay_ms
 631:MonoGFX/MonoGFX.c ****     // –£—Å—Ç–∞–Ω–æ–≤–∏—Ç–µ –≥–æ—Ä–∏–∑–æ–Ω—Ç–∞–ª—å–Ω—É—é –∏ –≤–µ—Ä—Ç–∏–∫–∞–ª—å–Ω—É—é –æ—Ä–∏–µ–Ω—Ç–∞
 632:MonoGFX/MonoGFX.c ****     MonoGFX_Send_command(ST7567A_SEG_REVERSE);   // ADC selection(SEG0->SEG128)
 295              		.loc 1 632 5
 296 0032 A120     		movs	r0, #161
 297 0034 FFF7FEFF 		bl	MonoGFX_Send_command
 633:MonoGFX/MonoGFX.c ****     MonoGFX_Send_command(ST7567A_COM_REVERSE);  // SHL selection(COM0->COM64)
 298              		.loc 1 633 5
 299 0038 C820     		movs	r0, #200
 300 003a FFF7FEFF 		bl	MonoGFX_Send_command
 634:MonoGFX/MonoGFX.c ****     Delay_ms(1);
 301              		.loc 1 634 5
 302 003e 0120     		movs	r0, #1
 303 0040 FFF7FEFF 		bl	Delay_ms
 635:MonoGFX/MonoGFX.c ****     // –¥–µ–ª–∏—Ç–µ–ª—å –≤–Ω—É—Ç—Ä–µ–Ω–Ω–µ–≥–æ —Ä–µ–∑–∏—Å—Ç–æ—Ä–∞ —É—Å—Ç–∞–Ω–æ–≤–ª–µ–Ω –Ω–∞ 7 (–æ—Ç
 636:MonoGFX/MonoGFX.c ****     MonoGFX_Send_command(0x20 | 0x4);  // Regulator Resistor Selection
 304              		.loc 1 636 5
 305 0044 2420     		movs	r0, #36
 306 0046 FFF7FEFF 		bl	MonoGFX_Send_command
 637:MonoGFX/MonoGFX.c ****     Delay_ms(1);
 307              		.loc 1 637 5
 308 004a 0120     		movs	r0, #1
 309 004c FFF7FEFF 		bl	Delay_ms
 638:MonoGFX/MonoGFX.c ****     // —É–ø—Ä–∞–≤–ª–µ–Ω–∏–µ –ø–∏—Ç–∞–Ω–∏–µ–º, –≤—Å–µ –≤–Ω—É—Ç—Ä–µ–Ω–Ω–∏–µ –±–ª–æ–∫–∏ –≤–∫–ª—é—á–µ–Ω
 639:MonoGFX/MonoGFX.c ****     MonoGFX_Send_command(0x28 | 0x7);
 310              		.loc 1 639 5
 311 0050 2F20     		movs	r0, #47
 312 0052 FFF7FEFF 		bl	MonoGFX_Send_command
 640:MonoGFX/MonoGFX.c ****     Delay_ms(1);
 313              		.loc 1 640 5
 314 0056 0120     		movs	r0, #1
ARM GAS  C:\Users\Oleg\AppData\Local\Temp\ccxd6WqM.s 			page 22


 315 0058 FFF7FEFF 		bl	Delay_ms
 641:MonoGFX/MonoGFX.c ****     // –≤–æ–π—Ç–∏ –≤ —Ä–µ–∂–∏–º –¥–∏–Ω–∞–º–∏—á–µ—Å–∫–æ–≥–æ –∫–æ–Ω—Ç—Ä–∞—Å—Ç–∞
 642:MonoGFX/MonoGFX.c ****     MonoGFX_Send_command(ST7567A_SET_EV_CMD);  // Electronic Volume
 316              		.loc 1 642 5
 317 005c 8120     		movs	r0, #129
 318 005e FFF7FEFF 		bl	MonoGFX_Send_command
 643:MonoGFX/MonoGFX.c ****     MonoGFX_Send_command(32);                  // –ù–∞—Å—Ç—Ä–æ–π–∫–∞ –∫–æ–Ω—Ç—Ä–∞—Å—Ç–∞. –û—Ç—Ä–µ–≥
 319              		.loc 1 643 5
 320 0062 2020     		movs	r0, #32
 321 0064 FFF7FEFF 		bl	MonoGFX_Send_command
 644:MonoGFX/MonoGFX.c ****     Delay_ms(1);
 322              		.loc 1 644 5
 323 0068 0120     		movs	r0, #1
 324 006a FFF7FEFF 		bl	Delay_ms
 645:MonoGFX/MonoGFX.c ****     MonoGFX_Send_command(ST7567A_SET_START_LINE);
 325              		.loc 1 645 5
 326 006e 4020     		movs	r0, #64
 327 0070 FFF7FEFF 		bl	MonoGFX_Send_command
 646:MonoGFX/MonoGFX.c ****     Delay_ms(1);
 328              		.loc 1 646 5
 329 0074 0120     		movs	r0, #1
 330 0076 FFF7FEFF 		bl	Delay_ms
 647:MonoGFX/MonoGFX.c ****     // CMD_DISPLAY_ON  CMD_DISPLAY_OFF
 648:MonoGFX/MonoGFX.c ****     MonoGFX_Send_command(ST7567A_DISPLAY_ON);  // Display on
 331              		.loc 1 648 5
 332 007a AF20     		movs	r0, #175
 333 007c FFF7FEFF 		bl	MonoGFX_Send_command
 649:MonoGFX/MonoGFX.c ****     // –ò–Ω–≤–µ—Ä—Ç–∏—Ä–æ–≤–∞–Ω–∏–µ —ç–∫—Ä–∞–Ω–∞
 650:MonoGFX/MonoGFX.c ****     MonoGFX_Send_command(ST7567A_COLOR_NORMAL);  // 0xA6 - nomal, 0xA7 - revers
 334              		.loc 1 650 5
 335 0080 A620     		movs	r0, #166
 336 0082 FFF7FEFF 		bl	MonoGFX_Send_command
 651:MonoGFX/MonoGFX.c ****     Delay_ms(1);
 337              		.loc 1 651 5
 338 0086 0120     		movs	r0, #1
 339 0088 FFF7FEFF 		bl	Delay_ms
 652:MonoGFX/MonoGFX.c ****     CS_OFF;
 340              		.loc 1 652 5
 341 008c 024B     		ldr	r3, .L8
 342 008e 0422     		movs	r2, #4
 343 0090 1A61     		str	r2, [r3, #16]
 653:MonoGFX/MonoGFX.c **** }
 344              		.loc 1 653 1
 345 0092 00BF     		nop
 346 0094 80BD     		pop	{r7, pc}
 347              	.L9:
 348 0096 00BF     		.align	2
 349              	.L8:
 350 0098 00080140 		.word	1073809408
 351              		.cfi_endproc
 352              	.LFE70:
 354              		.section	.text.MonoGFX_DrawBitmap,"ax",%progbits
 355              		.align	1
 356              		.global	MonoGFX_DrawBitmap
 357              		.syntax unified
 358              		.thumb
 359              		.thumb_func
ARM GAS  C:\Users\Oleg\AppData\Local\Temp\ccxd6WqM.s 			page 23


 361              	MonoGFX_DrawBitmap:
 362              	.LFB71:
 654:MonoGFX/MonoGFX.c **** #elif defined(USE_HAL)
 655:MonoGFX/MonoGFX.c **** void MonoGFX_Init(void) {
 656:MonoGFX/MonoGFX.c ****     /// –§—É–Ω–∫—Ü–∏—è –∏–Ω–∏—Ü–∏–∞–ª–∏–∑–∞—Ü–∏–∏ –¥–∏—Å–ø–ª–µ—è
 657:MonoGFX/MonoGFX.c ****     CS_ON;
 658:MonoGFX/MonoGFX.c ****     RST_ON;
 659:MonoGFX/MonoGFX.c ****     HAL_Delay(10);
 660:MonoGFX/MonoGFX.c ****     RST_OFF;
 661:MonoGFX/MonoGFX.c ****     HAL_Delay(10);
 662:MonoGFX/MonoGFX.c ****     // –£—Å—Ç–∞–Ω–æ–≤–∏—Ç–µ —Ä–∞–±–æ—á–∏–π —Ü–∏–∫–ª ( 1/7 –∏–ª–∏ 1/9 ) –≤ –∑–∞–≤–∏—Å–∏–º–æ—Å—Ç–∏ –æ
 663:MonoGFX/MonoGFX.c ****     MonoGFX_Send_command(0xA2);
 664:MonoGFX/MonoGFX.c ****     HAL_Delay(1);
 665:MonoGFX/MonoGFX.c ****     // –£—Å—Ç–∞–Ω–æ–≤–∏—Ç–µ –≥–æ—Ä–∏–∑–æ–Ω—Ç–∞–ª—å–Ω—É—é –∏ –≤–µ—Ä—Ç–∏–∫–∞–ª—å–Ω—É—é –æ—Ä–∏–µ–Ω—Ç–∞
 666:MonoGFX/MonoGFX.c ****     MonoGFX_Send_command(0xA0);  // ADC selection(SEG0->SEG128)
 667:MonoGFX/MonoGFX.c ****     MonoGFX_Send_command(0xC8);  // SHL selection(COM0->COM64)
 668:MonoGFX/MonoGFX.c ****     HAL_Delay(1);
 669:MonoGFX/MonoGFX.c ****     // –¥–µ–ª–∏—Ç–µ–ª—å –≤–Ω—É—Ç—Ä–µ–Ω–Ω–µ–≥–æ —Ä–µ–∑–∏—Å—Ç–æ—Ä–∞ —É—Å—Ç–∞–Ω–æ–≤–ª–µ–Ω –Ω–∞ 7 (–æ—Ç
 670:MonoGFX/MonoGFX.c ****     MonoGFX_Send_command(0x20 | 0x7);  // Regulator Resistor Selection
 671:MonoGFX/MonoGFX.c ****     HAL_Delay(1);
 672:MonoGFX/MonoGFX.c ****     // —É–ø—Ä–∞–≤–ª–µ–Ω–∏–µ –ø–∏—Ç–∞–Ω–∏–µ–º, –≤—Å–µ –≤–Ω—É—Ç—Ä–µ–Ω–Ω–∏–µ –±–ª–æ–∫–∏ –≤–∫–ª—é—á–µ–Ω
 673:MonoGFX/MonoGFX.c ****     MonoGFX_Send_command(0x28 | 0x7);
 674:MonoGFX/MonoGFX.c ****     HAL_Delay(1);
 675:MonoGFX/MonoGFX.c ****     // –≤–æ–π—Ç–∏ –≤ —Ä–µ–∂–∏–º –¥–∏–Ω–∞–º–∏—á–µ—Å–∫–æ–≥–æ –∫–æ–Ω—Ç—Ä–∞—Å—Ç–∞
 676:MonoGFX/MonoGFX.c ****     MonoGFX_Send_command(0x81);  // Electronic Volume
 677:MonoGFX/MonoGFX.c ****     MonoGFX_Send_command(18);    // –ù–∞—Å—Ç—Ä–æ–π–∫–∞ –∫–æ–Ω—Ç—Ä–∞—Å—Ç–∞. –û—Ç—Ä–µ–≥—É–ª–∏—Ä—É–π—Ç
 678:MonoGFX/MonoGFX.c ****     HAL_Delay(1);
 679:MonoGFX/MonoGFX.c ****     MonoGFX_Send_command(0x40);
 680:MonoGFX/MonoGFX.c ****     HAL_Delay(1);
 681:MonoGFX/MonoGFX.c ****     // CMD_DISPLAY_ON  CMD_DISPLAY_OFF
 682:MonoGFX/MonoGFX.c ****     MonoGFX_Send_command(0xAF);  // Display on
 683:MonoGFX/MonoGFX.c ****     // –ò–Ω–≤–µ—Ä—Ç–∏—Ä–æ–≤–∞–Ω–∏–µ —ç–∫—Ä–∞–Ω–∞
 684:MonoGFX/MonoGFX.c ****     MonoGFX_Send_command(0xA6);  // 0xA6 - nomal, 0xA7 - revers
 685:MonoGFX/MonoGFX.c ****     HAL_Delay(1);
 686:MonoGFX/MonoGFX.c ****     CS_OFF;
 687:MonoGFX/MonoGFX.c **** }
 688:MonoGFX/MonoGFX.c **** #endif
 689:MonoGFX/MonoGFX.c **** 
 690:MonoGFX/MonoGFX.c **** /**
 691:MonoGFX/MonoGFX.c ****  ******************************************************************************
 692:MonoGFX/MonoGFX.c ****  *  @breif –§—É–Ω–∫—Ü–∏—è –≤—ã–≤–æ–¥–∞ –∏–∑–æ–±—Ä–∞–∂–µ–Ω–∏—è —Å —É–∫–∞–∑–∞–Ω–∏–µ–º –µ–≥–æ —Ä–∞–∑–º
 693:MonoGFX/MonoGFX.c ****  *  @param  const uint8_t *bitmap - –º–∞—Å—Å–∏–≤ —Å –∏–∑–æ–±—Ä–∞–∂–µ–Ω–∏–µ–º
 694:MonoGFX/MonoGFX.c ****  *  @param  int8_t x - –Ω–∞—á–∞–ª—å–Ω–∞—è –∫–æ–æ—Ä–¥–∏–Ω–∞—Ç–∞ –ø–æ x
 695:MonoGFX/MonoGFX.c ****  *  @param  int8_t y - –Ω–∞—á–∞–ª—å–Ω–∞—è –∫–æ–æ—Ä–¥–∏–Ω–∞—Ç–∞ –ø–æ y
 696:MonoGFX/MonoGFX.c ****  *  @param  int8_t w - —à–∏—Ä–∏–Ω–∞ –∏–∑–æ–±—Ä–∞–∂–µ–Ω–∏—è –≤ –ø–∏–∫—Å–µ–ª—è—Ö
 697:MonoGFX/MonoGFX.c ****  *  @param  int8_t h - –≤—ã—Å–æ—Ç–∞ –∏–∑–æ–±—Ä–∞–∂–µ–Ω–∏—è –≤ –ø–∏–∫—Å–µ–ª—è—Ö
 698:MonoGFX/MonoGFX.c ****  ******************************************************************************
 699:MonoGFX/MonoGFX.c ****  */
 700:MonoGFX/MonoGFX.c **** 
 701:MonoGFX/MonoGFX.c **** void MonoGFX_DrawBitmap(const uint8_t *bitmap, int8_t x, int8_t y, int8_t w, int8_t h) {
 363              		.loc 1 701 88
 364              		.cfi_startproc
 365              		@ args = 4, pretend = 0, frame = 16
 366              		@ frame_needed = 1, uses_anonymous_args = 0
 367 0000 80B5     		push	{r7, lr}
 368              		.cfi_def_cfa_offset 8
 369              		.cfi_offset 7, -8
ARM GAS  C:\Users\Oleg\AppData\Local\Temp\ccxd6WqM.s 			page 24


 370              		.cfi_offset 14, -4
 371 0002 84B0     		sub	sp, sp, #16
 372              		.cfi_def_cfa_offset 24
 373 0004 00AF     		add	r7, sp, #0
 374              		.cfi_def_cfa_register 7
 375 0006 7860     		str	r0, [r7, #4]
 376 0008 0846     		mov	r0, r1
 377 000a 1146     		mov	r1, r2
 378 000c 1A46     		mov	r2, r3
 379 000e 0346     		mov	r3, r0
 380 0010 FB70     		strb	r3, [r7, #3]
 381 0012 0B46     		mov	r3, r1
 382 0014 BB70     		strb	r3, [r7, #2]
 383 0016 1346     		mov	r3, r2
 384 0018 7B70     		strb	r3, [r7, #1]
 702:MonoGFX/MonoGFX.c ****     int16_t byteWidth = (w + 7) / 8;  // Bitmap scanline pad = whole byte
 385              		.loc 1 702 28
 386 001a 97F90130 		ldrsb	r3, [r7, #1]
 387 001e 0733     		adds	r3, r3, #7
 388              		.loc 1 702 33
 389 0020 002B     		cmp	r3, #0
 390 0022 00DA     		bge	.L11
 391 0024 0733     		adds	r3, r3, #7
 392              	.L11:
 393 0026 DB10     		asrs	r3, r3, #3
 394              		.loc 1 702 13
 395 0028 3B81     		strh	r3, [r7, #8]	@ movhi
 703:MonoGFX/MonoGFX.c ****     uint8_t byte = 0;
 396              		.loc 1 703 13
 397 002a 0023     		movs	r3, #0
 398 002c FB73     		strb	r3, [r7, #15]
 399              	.LBB2:
 704:MonoGFX/MonoGFX.c **** 
 705:MonoGFX/MonoGFX.c ****     for (int16_t j = 0; j < h; j++, y++) {
 400              		.loc 1 705 18
 401 002e 0023     		movs	r3, #0
 402 0030 BB81     		strh	r3, [r7, #12]	@ movhi
 403              		.loc 1 705 5
 404 0032 49E0     		b	.L12
 405              	.L19:
 406              	.LBB3:
 706:MonoGFX/MonoGFX.c ****         for (int16_t i = 0; i < w; i++) {
 407              		.loc 1 706 22
 408 0034 0023     		movs	r3, #0
 409 0036 7B81     		strh	r3, [r7, #10]	@ movhi
 410              		.loc 1 706 9
 411 0038 33E0     		b	.L13
 412              	.L18:
 707:MonoGFX/MonoGFX.c ****             if (i & 7) {
 413              		.loc 1 707 19
 414 003a 7B89     		ldrh	r3, [r7, #10]
 415 003c 03F00703 		and	r3, r3, #7
 416              		.loc 1 707 16
 417 0040 002B     		cmp	r3, #0
 418 0042 03D0     		beq	.L14
 708:MonoGFX/MonoGFX.c ****                 byte <<= 1;
 419              		.loc 1 708 22
ARM GAS  C:\Users\Oleg\AppData\Local\Temp\ccxd6WqM.s 			page 25


 420 0044 FB7B     		ldrb	r3, [r7, #15]
 421 0046 5B00     		lsls	r3, r3, #1
 422 0048 FB73     		strb	r3, [r7, #15]
 423 004a 12E0     		b	.L15
 424              	.L14:
 709:MonoGFX/MonoGFX.c ****             } else {
 710:MonoGFX/MonoGFX.c ****                 byte = (*(const unsigned char *)(&bitmap[j * byteWidth + i / 8]));
 425              		.loc 1 710 60
 426 004c B7F90C30 		ldrsh	r3, [r7, #12]
 427 0050 B7F90820 		ldrsh	r2, [r7, #8]
 428 0054 03FB02F2 		mul	r2, r3, r2
 429              		.loc 1 710 76
 430 0058 B7F90A30 		ldrsh	r3, [r7, #10]
 431 005c 002B     		cmp	r3, #0
 432 005e 00DA     		bge	.L16
 433 0060 0733     		adds	r3, r3, #7
 434              	.L16:
 435 0062 DB10     		asrs	r3, r3, #3
 436 0064 1BB2     		sxth	r3, r3
 437              		.loc 1 710 72
 438 0066 1344     		add	r3, r3, r2
 439 0068 1A46     		mov	r2, r3
 440              		.loc 1 710 50
 441 006a 7B68     		ldr	r3, [r7, #4]
 442 006c 1344     		add	r3, r3, r2
 443              		.loc 1 710 22
 444 006e 1B78     		ldrb	r3, [r3]
 445 0070 FB73     		strb	r3, [r7, #15]
 446              	.L15:
 711:MonoGFX/MonoGFX.c ****             }
 712:MonoGFX/MonoGFX.c **** 
 713:MonoGFX/MonoGFX.c ****             if (byte & 0x80) {
 447              		.loc 1 713 17
 448 0072 97F90F30 		ldrsb	r3, [r7, #15]
 449              		.loc 1 713 16
 450 0076 002B     		cmp	r3, #0
 451 0078 0DDA     		bge	.L17
 714:MonoGFX/MonoGFX.c ****                 MonoGFX_Draw_pixel(x + i, y, 1);
 452              		.loc 1 714 38
 453 007a 97F90330 		ldrsb	r3, [r7, #3]
 454 007e 9AB2     		uxth	r2, r3
 455 0080 7B89     		ldrh	r3, [r7, #10]
 456 0082 1344     		add	r3, r3, r2
 457 0084 9BB2     		uxth	r3, r3
 458              		.loc 1 714 17
 459 0086 1BB2     		sxth	r3, r3
 460 0088 97F90220 		ldrsb	r2, [r7, #2]
 461 008c 11B2     		sxth	r1, r2
 462 008e 0122     		movs	r2, #1
 463 0090 1846     		mov	r0, r3
 464 0092 FFF7FEFF 		bl	MonoGFX_Draw_pixel
 465              	.L17:
 706:MonoGFX/MonoGFX.c ****             if (i & 7) {
 466              		.loc 1 706 37 discriminator 2
 467 0096 B7F90A30 		ldrsh	r3, [r7, #10]
 468 009a 9BB2     		uxth	r3, r3
 469 009c 0133     		adds	r3, r3, #1
ARM GAS  C:\Users\Oleg\AppData\Local\Temp\ccxd6WqM.s 			page 26


 470 009e 9BB2     		uxth	r3, r3
 471 00a0 7B81     		strh	r3, [r7, #10]	@ movhi
 472              	.L13:
 706:MonoGFX/MonoGFX.c ****             if (i & 7) {
 473              		.loc 1 706 31 discriminator 1
 474 00a2 97F90130 		ldrsb	r3, [r7, #1]
 475 00a6 1BB2     		sxth	r3, r3
 706:MonoGFX/MonoGFX.c ****             if (i & 7) {
 476              		.loc 1 706 9 discriminator 1
 477 00a8 B7F90A20 		ldrsh	r2, [r7, #10]
 478 00ac 9A42     		cmp	r2, r3
 479 00ae C4DB     		blt	.L18
 480              	.LBE3:
 705:MonoGFX/MonoGFX.c ****         for (int16_t i = 0; i < w; i++) {
 481              		.loc 1 705 33 discriminator 2
 482 00b0 B7F90C30 		ldrsh	r3, [r7, #12]
 483 00b4 9BB2     		uxth	r3, r3
 484 00b6 0133     		adds	r3, r3, #1
 485 00b8 9BB2     		uxth	r3, r3
 486 00ba BB81     		strh	r3, [r7, #12]	@ movhi
 705:MonoGFX/MonoGFX.c ****         for (int16_t i = 0; i < w; i++) {
 487              		.loc 1 705 38 discriminator 2
 488 00bc 97F90230 		ldrsb	r3, [r7, #2]
 489 00c0 DBB2     		uxtb	r3, r3
 490 00c2 0133     		adds	r3, r3, #1
 491 00c4 DBB2     		uxtb	r3, r3
 492 00c6 BB70     		strb	r3, [r7, #2]
 493              	.L12:
 705:MonoGFX/MonoGFX.c ****         for (int16_t i = 0; i < w; i++) {
 494              		.loc 1 705 27 discriminator 1
 495 00c8 97F91830 		ldrsb	r3, [r7, #24]
 496 00cc 1BB2     		sxth	r3, r3
 705:MonoGFX/MonoGFX.c ****         for (int16_t i = 0; i < w; i++) {
 497              		.loc 1 705 5 discriminator 1
 498 00ce B7F90C20 		ldrsh	r2, [r7, #12]
 499 00d2 9A42     		cmp	r2, r3
 500 00d4 AEDB     		blt	.L19
 501              	.LBE2:
 715:MonoGFX/MonoGFX.c ****             }
 716:MonoGFX/MonoGFX.c ****         }
 717:MonoGFX/MonoGFX.c ****     }
 718:MonoGFX/MonoGFX.c **** }
 502              		.loc 1 718 1
 503 00d6 00BF     		nop
 504 00d8 00BF     		nop
 505 00da 1037     		adds	r7, r7, #16
 506              		.cfi_def_cfa_offset 8
 507 00dc BD46     		mov	sp, r7
 508              		.cfi_def_cfa_register 13
 509              		@ sp needed
 510 00de 80BD     		pop	{r7, pc}
 511              		.cfi_endproc
 512              	.LFE71:
 514              		.section	.text.MonoGFX_Draw_pixel,"ax",%progbits
 515              		.align	1
 516              		.global	MonoGFX_Draw_pixel
 517              		.syntax unified
ARM GAS  C:\Users\Oleg\AppData\Local\Temp\ccxd6WqM.s 			page 27


 518              		.thumb
 519              		.thumb_func
 521              	MonoGFX_Draw_pixel:
 522              	.LFB72:
 719:MonoGFX/MonoGFX.c **** 
 720:MonoGFX/MonoGFX.c **** /**
 721:MonoGFX/MonoGFX.c ****  ******************************************************************************
 722:MonoGFX/MonoGFX.c ****  *  @breif –§—É–Ω–∫—Ü–∏—è —Ä–∏—Å–æ–≤–∞–Ω–∏—è –ø–∏–∫—Å–µ–ª—è
 723:MonoGFX/MonoGFX.c ****  *  @param  int16_t x - –Ω–∞—á–∞–ª—å–Ω–∞—è –∫–æ–æ—Ä–¥–∏–Ω–∞—Ç–∞ –ø–æ x
 724:MonoGFX/MonoGFX.c ****  *  @param  int16_t y - –Ω–∞—á–∞–ª—å–Ω–∞—è –∫–æ–æ—Ä–¥–∏–Ω–∞—Ç–∞ –ø–æ y
 725:MonoGFX/MonoGFX.c ****  *  @param  uint8_t color - —Ü–≤–µ—Ç —Ç–æ—á–∫–∏. (1/0)
 726:MonoGFX/MonoGFX.c ****  ******************************************************************************
 727:MonoGFX/MonoGFX.c ****  */
 728:MonoGFX/MonoGFX.c **** 
 729:MonoGFX/MonoGFX.c **** void MonoGFX_Draw_pixel(int16_t x, int16_t y, uint8_t color) {
 523              		.loc 1 729 62
 524              		.cfi_startproc
 525              		@ args = 0, pretend = 0, frame = 16
 526              		@ frame_needed = 1, uses_anonymous_args = 0
 527              		@ link register save eliminated.
 528 0000 80B4     		push	{r7}
 529              		.cfi_def_cfa_offset 4
 530              		.cfi_offset 7, -4
 531 0002 85B0     		sub	sp, sp, #20
 532              		.cfi_def_cfa_offset 24
 533 0004 00AF     		add	r7, sp, #0
 534              		.cfi_def_cfa_register 7
 535 0006 0346     		mov	r3, r0
 536 0008 FB80     		strh	r3, [r7, #6]	@ movhi
 537 000a 0B46     		mov	r3, r1	@ movhi
 538 000c BB80     		strh	r3, [r7, #4]	@ movhi
 539 000e 1346     		mov	r3, r2
 540 0010 FB70     		strb	r3, [r7, #3]
 730:MonoGFX/MonoGFX.c ****     if (x >= MonoGFX_width || x < 0 || y >= MonoGFX_height || y < 0) {
 541              		.loc 1 730 11
 542 0012 B7F90630 		ldrsh	r3, [r7, #6]
 543 0016 2F4A     		ldr	r2, .L27
 544 0018 1278     		ldrb	r2, [r2]	@ zero_extendqisi2
 545              		.loc 1 730 8
 546 001a 9342     		cmp	r3, r2
 547 001c 55DA     		bge	.L26
 548              		.loc 1 730 28 discriminator 1
 549 001e B7F90630 		ldrsh	r3, [r7, #6]
 550 0022 002B     		cmp	r3, #0
 551 0024 51DB     		blt	.L26
 552              		.loc 1 730 42 discriminator 2
 553 0026 B7F90430 		ldrsh	r3, [r7, #4]
 554 002a 2B4A     		ldr	r2, .L27+4
 555 002c 1278     		ldrb	r2, [r2]	@ zero_extendqisi2
 556              		.loc 1 730 37 discriminator 2
 557 002e 9342     		cmp	r3, r2
 558 0030 4BDA     		bge	.L26
 559              		.loc 1 730 60 discriminator 3
 560 0032 B7F90430 		ldrsh	r3, [r7, #4]
 561 0036 002B     		cmp	r3, #0
 562 0038 47DB     		blt	.L26
 563              	.LBB4:
ARM GAS  C:\Users\Oleg\AppData\Local\Temp\ccxd6WqM.s 			page 28


 731:MonoGFX/MonoGFX.c ****         return;
 732:MonoGFX/MonoGFX.c ****     } else {
 733:MonoGFX/MonoGFX.c ****         uint16_t array_pos = x + ((y / 8) * MonoGFX_width);
 564              		.loc 1 733 32
 565 003a B7F90430 		ldrsh	r3, [r7, #4]
 566 003e 002B     		cmp	r3, #0
 567 0040 00DA     		bge	.L24
 568 0042 0733     		adds	r3, r3, #7
 569              	.L24:
 570 0044 DB10     		asrs	r3, r3, #3
 571 0046 1BB2     		sxth	r3, r3
 572 0048 9BB2     		uxth	r3, r3
 573 004a 224A     		ldr	r2, .L27
 574 004c 1278     		ldrb	r2, [r2]	@ zero_extendqisi2
 575 004e 92B2     		uxth	r2, r2
 576 0050 02FB03F3 		mul	r3, r2, r3
 577 0054 9AB2     		uxth	r2, r3
 578 0056 FB88     		ldrh	r3, [r7, #6]
 579              		.loc 1 733 18
 580 0058 1344     		add	r3, r3, r2
 581 005a FB81     		strh	r3, [r7, #14]	@ movhi
 734:MonoGFX/MonoGFX.c **** 
 735:MonoGFX/MonoGFX.c ****         if (color) {
 582              		.loc 1 735 12
 583 005c FB78     		ldrb	r3, [r7, #3]	@ zero_extendqisi2
 584 005e 002B     		cmp	r3, #0
 585 0060 18D0     		beq	.L25
 736:MonoGFX/MonoGFX.c ****             MonoGFX_Frame_buffer[array_pos] |= 1 << (y % 8);
 586              		.loc 1 736 45
 587 0062 FB89     		ldrh	r3, [r7, #14]
 588 0064 1D4A     		ldr	r2, .L27+8
 589 0066 D35C     		ldrb	r3, [r2, r3]	@ zero_extendqisi2
 590 0068 5AB2     		sxtb	r2, r3
 591              		.loc 1 736 56
 592 006a B7F90430 		ldrsh	r3, [r7, #4]
 593 006e 5942     		rsbs	r1, r3, #0
 594 0070 03F00703 		and	r3, r3, #7
 595 0074 01F00701 		and	r1, r1, #7
 596 0078 58BF     		it	pl
 597 007a 4B42     		rsbpl	r3, r1, #0
 598 007c 1BB2     		sxth	r3, r3
 599 007e 1946     		mov	r1, r3
 600              		.loc 1 736 50
 601 0080 0123     		movs	r3, #1
 602 0082 8B40     		lsls	r3, r3, r1
 603              		.loc 1 736 45
 604 0084 5BB2     		sxtb	r3, r3
 605 0086 1343     		orrs	r3, r3, r2
 606 0088 5AB2     		sxtb	r2, r3
 607 008a FB89     		ldrh	r3, [r7, #14]
 608 008c D1B2     		uxtb	r1, r2
 609 008e 134A     		ldr	r2, .L27+8
 610 0090 D154     		strb	r1, [r2, r3]
 611 0092 1BE0     		b	.L20
 612              	.L25:
 737:MonoGFX/MonoGFX.c ****         } else {
 738:MonoGFX/MonoGFX.c ****             MonoGFX_Frame_buffer[array_pos] &= 0xFF ^ 1 << (y % 8);
ARM GAS  C:\Users\Oleg\AppData\Local\Temp\ccxd6WqM.s 			page 29


 613              		.loc 1 738 45
 614 0094 FB89     		ldrh	r3, [r7, #14]
 615 0096 114A     		ldr	r2, .L27+8
 616 0098 D35C     		ldrb	r3, [r2, r3]	@ zero_extendqisi2
 617 009a 5AB2     		sxtb	r2, r3
 618              		.loc 1 738 63
 619 009c B7F90430 		ldrsh	r3, [r7, #4]
 620 00a0 5942     		rsbs	r1, r3, #0
 621 00a2 03F00703 		and	r3, r3, #7
 622 00a6 01F00701 		and	r1, r1, #7
 623 00aa 58BF     		it	pl
 624 00ac 4B42     		rsbpl	r3, r1, #0
 625 00ae 1BB2     		sxth	r3, r3
 626 00b0 1946     		mov	r1, r3
 627              		.loc 1 738 57
 628 00b2 0123     		movs	r3, #1
 629 00b4 8B40     		lsls	r3, r3, r1
 630              		.loc 1 738 53
 631 00b6 5BB2     		sxtb	r3, r3
 632 00b8 DB43     		mvns	r3, r3
 633 00ba 5BB2     		sxtb	r3, r3
 634              		.loc 1 738 45
 635 00bc 1340     		ands	r3, r3, r2
 636 00be 5AB2     		sxtb	r2, r3
 637 00c0 FB89     		ldrh	r3, [r7, #14]
 638 00c2 D1B2     		uxtb	r1, r2
 639 00c4 054A     		ldr	r2, .L27+8
 640 00c6 D154     		strb	r1, [r2, r3]
 641 00c8 00E0     		b	.L20
 642              	.L26:
 643              	.LBE4:
 731:MonoGFX/MonoGFX.c ****     } else {
 644              		.loc 1 731 9
 645 00ca 00BF     		nop
 646              	.L20:
 739:MonoGFX/MonoGFX.c ****         }
 740:MonoGFX/MonoGFX.c ****     }
 741:MonoGFX/MonoGFX.c **** }
 647              		.loc 1 741 1
 648 00cc 1437     		adds	r7, r7, #20
 649              		.cfi_def_cfa_offset 4
 650 00ce BD46     		mov	sp, r7
 651              		.cfi_def_cfa_register 13
 652              		@ sp needed
 653 00d0 80BC     		pop	{r7}
 654              		.cfi_restore 7
 655              		.cfi_def_cfa_offset 0
 656 00d2 7047     		bx	lr
 657              	.L28:
 658              		.align	2
 659              	.L27:
 660 00d4 00000000 		.word	MonoGFX_width
 661 00d8 00000000 		.word	MonoGFX_height
 662 00dc 00000000 		.word	MonoGFX_Frame_buffer
 663              		.cfi_endproc
 664              	.LFE72:
 666              		.section	.text.MonoGFX_Update,"ax",%progbits
ARM GAS  C:\Users\Oleg\AppData\Local\Temp\ccxd6WqM.s 			page 30


 667              		.align	1
 668              		.global	MonoGFX_Update
 669              		.syntax unified
 670              		.thumb
 671              		.thumb_func
 673              	MonoGFX_Update:
 674              	.LFB73:
 742:MonoGFX/MonoGFX.c **** 
 743:MonoGFX/MonoGFX.c **** /**
 744:MonoGFX/MonoGFX.c ****  ******************************************************************************
 745:MonoGFX/MonoGFX.c ****  *  @breif –§—É–Ω–∫—Ü–∏—è –≤—ã–≤–æ–¥–∞ –±—É—Ñ–µ—Ä–∞ –∫–∞–¥—Ä–∞ –Ω–∞ –¥–∏—Å–ø–ª–µ–π
 746:MonoGFX/MonoGFX.c ****  ******************************************************************************
 747:MonoGFX/MonoGFX.c ****  */
 748:MonoGFX/MonoGFX.c **** 
 749:MonoGFX/MonoGFX.c **** void MonoGFX_Update(void) {
 675              		.loc 1 749 27
 676              		.cfi_startproc
 677              		@ args = 0, pretend = 0, frame = 8
 678              		@ frame_needed = 1, uses_anonymous_args = 0
 679 0000 80B5     		push	{r7, lr}
 680              		.cfi_def_cfa_offset 8
 681              		.cfi_offset 7, -8
 682              		.cfi_offset 14, -4
 683 0002 82B0     		sub	sp, sp, #8
 684              		.cfi_def_cfa_offset 16
 685 0004 00AF     		add	r7, sp, #0
 686              		.cfi_def_cfa_register 7
 750:MonoGFX/MonoGFX.c ****     CS_ON;
 687              		.loc 1 750 5
 688 0006 1C4B     		ldr	r3, .L34
 689 0008 4FF48022 		mov	r2, #262144
 690 000c 1A61     		str	r2, [r3, #16]
 691              	.LBB5:
 751:MonoGFX/MonoGFX.c ****     for (uint8_t y = 0; y < 8; y++) {
 692              		.loc 1 751 18
 693 000e 0023     		movs	r3, #0
 694 0010 FB71     		strb	r3, [r7, #7]
 695              		.loc 1 751 5
 696 0012 27E0     		b	.L30
 697              	.L33:
 752:MonoGFX/MonoGFX.c ****         ST7567_SetX(4); //—Å–º–µ—â–µ–Ω–∏–µ –Ω–∞ 4 –ø–∏–∫—Å–µ–ª—è –≤–ø—Ä–∞–≤–æ
 698              		.loc 1 752 9
 699 0014 1020     		movs	r0, #16
 700 0016 FFF7FEFF 		bl	MonoGFX_Send_command
 701 001a 0420     		movs	r0, #4
 702 001c FFF7FEFF 		bl	MonoGFX_Send_command
 753:MonoGFX/MonoGFX.c ****         ST7567_SetY((int16_t)y);
 703              		.loc 1 753 9
 704 0020 97F90730 		ldrsb	r3, [r7, #7]
 705 0024 03F00703 		and	r3, r3, #7
 706 0028 5BB2     		sxtb	r3, r3
 707 002a 63F04F03 		orn	r3, r3, #79
 708 002e 5BB2     		sxtb	r3, r3
 709 0030 DBB2     		uxtb	r3, r3
 710 0032 1846     		mov	r0, r3
 711 0034 FFF7FEFF 		bl	MonoGFX_Send_command
 712              	.LBB6:
ARM GAS  C:\Users\Oleg\AppData\Local\Temp\ccxd6WqM.s 			page 31


 754:MonoGFX/MonoGFX.c ****         for (uint8_t x = 0; x < 128; x++) {
 713              		.loc 1 754 22
 714 0038 0023     		movs	r3, #0
 715 003a BB71     		strb	r3, [r7, #6]
 716              		.loc 1 754 9
 717 003c 0BE0     		b	.L31
 718              	.L32:
 755:MonoGFX/MonoGFX.c ****             MonoGFX_Send_data(MonoGFX_Frame_buffer[x + 128 * y]);
 719              		.loc 1 755 54 discriminator 3
 720 003e BA79     		ldrb	r2, [r7, #6]	@ zero_extendqisi2
 721              		.loc 1 755 60 discriminator 3
 722 0040 FB79     		ldrb	r3, [r7, #7]	@ zero_extendqisi2
 723 0042 DB01     		lsls	r3, r3, #7
 724              		.loc 1 755 54 discriminator 3
 725 0044 1344     		add	r3, r3, r2
 726              		.loc 1 755 13 discriminator 3
 727 0046 0D4A     		ldr	r2, .L34+4
 728 0048 D35C     		ldrb	r3, [r2, r3]	@ zero_extendqisi2
 729 004a 1846     		mov	r0, r3
 730 004c FFF7FEFF 		bl	MonoGFX_Send_data
 754:MonoGFX/MonoGFX.c ****         for (uint8_t x = 0; x < 128; x++) {
 731              		.loc 1 754 39 discriminator 3
 732 0050 BB79     		ldrb	r3, [r7, #6]	@ zero_extendqisi2
 733 0052 0133     		adds	r3, r3, #1
 734 0054 BB71     		strb	r3, [r7, #6]
 735              	.L31:
 754:MonoGFX/MonoGFX.c ****         for (uint8_t x = 0; x < 128; x++) {
 736              		.loc 1 754 31 discriminator 1
 737 0056 97F90630 		ldrsb	r3, [r7, #6]
 754:MonoGFX/MonoGFX.c ****         for (uint8_t x = 0; x < 128; x++) {
 738              		.loc 1 754 9 discriminator 1
 739 005a 002B     		cmp	r3, #0
 740 005c EFDA     		bge	.L32
 741              	.LBE6:
 751:MonoGFX/MonoGFX.c ****         ST7567_SetX(4); //—Å–º–µ—â–µ–Ω–∏–µ –Ω–∞ 4 –ø–∏–∫—Å–µ–ª—è –≤–ø—Ä–∞–≤–æ
 742              		.loc 1 751 33 discriminator 2
 743 005e FB79     		ldrb	r3, [r7, #7]	@ zero_extendqisi2
 744 0060 0133     		adds	r3, r3, #1
 745 0062 FB71     		strb	r3, [r7, #7]
 746              	.L30:
 751:MonoGFX/MonoGFX.c ****         ST7567_SetX(4); //—Å–º–µ—â–µ–Ω–∏–µ –Ω–∞ 4 –ø–∏–∫—Å–µ–ª—è –≤–ø—Ä–∞–≤–æ
 747              		.loc 1 751 5 discriminator 1
 748 0064 FB79     		ldrb	r3, [r7, #7]	@ zero_extendqisi2
 749 0066 072B     		cmp	r3, #7
 750 0068 D4D9     		bls	.L33
 751              	.LBE5:
 756:MonoGFX/MonoGFX.c ****         }
 757:MonoGFX/MonoGFX.c ****     }
 758:MonoGFX/MonoGFX.c ****     CS_OFF;
 752              		.loc 1 758 5
 753 006a 034B     		ldr	r3, .L34
 754 006c 0422     		movs	r2, #4
 755 006e 1A61     		str	r2, [r3, #16]
 759:MonoGFX/MonoGFX.c **** }
 756              		.loc 1 759 1
 757 0070 00BF     		nop
 758 0072 0837     		adds	r7, r7, #8
ARM GAS  C:\Users\Oleg\AppData\Local\Temp\ccxd6WqM.s 			page 32


 759              		.cfi_def_cfa_offset 8
 760 0074 BD46     		mov	sp, r7
 761              		.cfi_def_cfa_register 13
 762              		@ sp needed
 763 0076 80BD     		pop	{r7, pc}
 764              	.L35:
 765              		.align	2
 766              	.L34:
 767 0078 00080140 		.word	1073809408
 768 007c 00000000 		.word	MonoGFX_Frame_buffer
 769              		.cfi_endproc
 770              	.LFE73:
 772              		.section	.text.MonoGFX_Clean_Frame_buffer,"ax",%progbits
 773              		.align	1
 774              		.global	MonoGFX_Clean_Frame_buffer
 775              		.syntax unified
 776              		.thumb
 777              		.thumb_func
 779              	MonoGFX_Clean_Frame_buffer:
 780              	.LFB74:
 760:MonoGFX/MonoGFX.c **** 
 761:MonoGFX/MonoGFX.c **** #endif
 762:MonoGFX/MonoGFX.c **** 
 763:MonoGFX/MonoGFX.c **** /******************************** –§–£–ù–ö–¶–ò–ò, –ù–ï –ó–ê–í–ò–°–Ø–©–ò–ï –û–¢ –î–†–ê–ô–í–ï–†–ê –î–
 764:MonoGFX/MonoGFX.c **** 
 765:MonoGFX/MonoGFX.c **** /**
 766:MonoGFX/MonoGFX.c ****  ******************************************************************************
 767:MonoGFX/MonoGFX.c ****  *  @breif –§—É–Ω–∫—Ü–∏—è –æ—á–∏—Å—Ç–∫–∏ –±—É—Ñ–µ—Ä–∞ –∫–∞–¥—Ä–∞
 768:MonoGFX/MonoGFX.c ****  ******************************************************************************
 769:MonoGFX/MonoGFX.c ****  */
 770:MonoGFX/MonoGFX.c **** 
 771:MonoGFX/MonoGFX.c **** void MonoGFX_Clean_Frame_buffer(void) {
 781              		.loc 1 771 39
 782              		.cfi_startproc
 783              		@ args = 0, pretend = 0, frame = 0
 784              		@ frame_needed = 1, uses_anonymous_args = 0
 785 0000 80B5     		push	{r7, lr}
 786              		.cfi_def_cfa_offset 8
 787              		.cfi_offset 7, -8
 788              		.cfi_offset 14, -4
 789 0002 00AF     		add	r7, sp, #0
 790              		.cfi_def_cfa_register 7
 772:MonoGFX/MonoGFX.c ****     memset(MonoGFX_Frame_buffer, 0x00, sizeof(MonoGFX_Frame_buffer));
 791              		.loc 1 772 5
 792 0004 4FF48062 		mov	r2, #1024
 793 0008 0021     		movs	r1, #0
 794 000a 0248     		ldr	r0, .L37
 795 000c FFF7FEFF 		bl	memset
 773:MonoGFX/MonoGFX.c **** }
 796              		.loc 1 773 1
 797 0010 00BF     		nop
 798 0012 80BD     		pop	{r7, pc}
 799              	.L38:
 800              		.align	2
 801              	.L37:
 802 0014 00000000 		.word	MonoGFX_Frame_buffer
 803              		.cfi_endproc
ARM GAS  C:\Users\Oleg\AppData\Local\Temp\ccxd6WqM.s 			page 33


 804              	.LFE74:
 806              		.section	.text.MonoGFX_Print_symbol_5x7,"ax",%progbits
 807              		.align	1
 808              		.global	MonoGFX_Print_symbol_5x7
 809              		.syntax unified
 810              		.thumb
 811              		.thumb_func
 813              	MonoGFX_Print_symbol_5x7:
 814              	.LFB75:
 774:MonoGFX/MonoGFX.c **** 
 775:MonoGFX/MonoGFX.c **** /**
 776:MonoGFX/MonoGFX.c ****  ******************************************************************************
 777:MonoGFX/MonoGFX.c ****  *  @breif –§—É–Ω–∫—Ü–∏—è –≤—ã–≤–æ–¥–∞ —Å–∏–º–≤–æ–ª–∞ –Ω–∞ –¥–∏—Å–ø–ª–µ–π (—à—Ä–∏—Ñ—Ç 5x7)
 778:MonoGFX/MonoGFX.c ****  *  @param  uint8_t x - –Ω–∞—á–∞–ª—å–Ω–∞—è –∫–æ–æ—Ä–¥–∏–Ω–∞—Ç–∞ –ø–æ x
 779:MonoGFX/MonoGFX.c ****  *  @param  int8_t y - –Ω–∞—á–∞–ª—å–Ω–∞—è –∫–æ–æ—Ä–¥–∏–Ω–∞—Ç–∞ –ø–æ y
 780:MonoGFX/MonoGFX.c ****  *  @param  uint16_t symbol - –Ω–æ–º–µ—Ä —Å–∏–º–≤–æ–ª–∞ –∏–∑ —Ç–∞–±–ª–∏—Ü—ã UTF-8
 781:MonoGFX/MonoGFX.c ****  *  @param  uint8_t inversion - –∏–Ω–≤–µ—Ä—Å–∏—è —Å–∏–º–≤–æ–ª–∞ (1/0)
 782:MonoGFX/MonoGFX.c ****  ******************************************************************************
 783:MonoGFX/MonoGFX.c ****  */
 784:MonoGFX/MonoGFX.c **** 
 785:MonoGFX/MonoGFX.c **** void MonoGFX_Print_symbol_5x7(uint8_t x, uint8_t y, uint16_t symbol, uint8_t inversion) {
 815              		.loc 1 785 89
 816              		.cfi_startproc
 817              		@ args = 0, pretend = 0, frame = 16
 818              		@ frame_needed = 1, uses_anonymous_args = 0
 819 0000 90B5     		push	{r4, r7, lr}
 820              		.cfi_def_cfa_offset 12
 821              		.cfi_offset 4, -12
 822              		.cfi_offset 7, -8
 823              		.cfi_offset 14, -4
 824 0002 85B0     		sub	sp, sp, #20
 825              		.cfi_def_cfa_offset 32
 826 0004 00AF     		add	r7, sp, #0
 827              		.cfi_def_cfa_register 7
 828 0006 0446     		mov	r4, r0
 829 0008 0846     		mov	r0, r1
 830 000a 1146     		mov	r1, r2
 831 000c 1A46     		mov	r2, r3
 832 000e 2346     		mov	r3, r4
 833 0010 FB71     		strb	r3, [r7, #7]
 834 0012 0346     		mov	r3, r0
 835 0014 BB71     		strb	r3, [r7, #6]
 836 0016 0B46     		mov	r3, r1	@ movhi
 837 0018 BB80     		strh	r3, [r7, #4]	@ movhi
 838 001a 1346     		mov	r3, r2
 839 001c FB70     		strb	r3, [r7, #3]
 786:MonoGFX/MonoGFX.c ****     /// –§—É–Ω–∫—Ü–∏—è –≤—ã–≤–æ–¥–∞ —Å–∏–º–≤–æ–ª–∞ –Ω–∞ –¥–∏—Å–ø–ª–µ–π
 787:MonoGFX/MonoGFX.c ****     uint8_t x_start = x;     // –Ω–∞—á–∞–ª—å–Ω–æ–µ –ø–æ–ª–æ–∂–µ–Ω–∏–µ –ø–æ x
 840              		.loc 1 787 13
 841 001e FB79     		ldrb	r3, [r7, #7]
 842 0020 3B73     		strb	r3, [r7, #12]
 788:MonoGFX/MonoGFX.c ****     uint8_t x_stop = x + 5;  // –∫–æ–Ω–µ—á–Ω–æ–µ –ø–æ–ª–æ–∂–µ–Ω–∏–µ –ø–æ x —Å —É—á–µ—Ç–æ–º –º–µ–∂—Å
 843              		.loc 1 788 13
 844 0022 FB79     		ldrb	r3, [r7, #7]
 845 0024 0533     		adds	r3, r3, #5
 846 0026 FB72     		strb	r3, [r7, #11]
 847              	.LBB7:
ARM GAS  C:\Users\Oleg\AppData\Local\Temp\ccxd6WqM.s 			page 34


 789:MonoGFX/MonoGFX.c ****     for (uint8_t x = x_start; x <= x_stop; x++) {
 848              		.loc 1 789 18
 849 0028 3B7B     		ldrb	r3, [r7, #12]
 850 002a FB73     		strb	r3, [r7, #15]
 851              		.loc 1 789 5
 852 002c 86E0     		b	.L40
 853              	.L53:
 790:MonoGFX/MonoGFX.c ****         if (x == x_stop) {                      // –ó–∞–ø–æ–ª–Ω—è–µ–º –º–µ–∂—Å–∏–º–≤–æ–ª—å–Ω—ã–µ –∏
 854              		.loc 1 790 12
 855 002e FA7B     		ldrb	r2, [r7, #15]	@ zero_extendqisi2
 856 0030 FB7A     		ldrb	r3, [r7, #11]	@ zero_extendqisi2
 857 0032 9A42     		cmp	r2, r3
 858 0034 27D1     		bne	.L41
 859              	.LBB8:
 791:MonoGFX/MonoGFX.c ****             for (uint8_t i = 0; i <= 6; i++) {  // –æ—Ç 0 –¥–æ 6, —Ç.–∫. —à—Ä–∏—Ñ—Ç –≤—ã—Å–æ—Ç–æ–π 
 860              		.loc 1 791 26
 861 0036 0023     		movs	r3, #0
 862 0038 BB73     		strb	r3, [r7, #14]
 863              		.loc 1 791 13
 864 003a 20E0     		b	.L42
 865              	.L45:
 792:MonoGFX/MonoGFX.c ****                 if (0x00 & (1 << i)) {
 793:MonoGFX/MonoGFX.c ****                     if (inversion) {
 794:MonoGFX/MonoGFX.c ****                         MonoGFX_Draw_pixel(x, y + i, 0);  // –ó–∞–∫—Ä–∞—Å–∏—Ç—å –ø–∏–∫—Å–µ–ª—å
 795:MonoGFX/MonoGFX.c ****                     } else {
 796:MonoGFX/MonoGFX.c ****                         MonoGFX_Draw_pixel(x, y + i, 1);  // –ó–∞–∫—Ä–∞—Å–∏—Ç—å –ø–∏–∫—Å–µ–ª—å
 797:MonoGFX/MonoGFX.c ****                     }
 798:MonoGFX/MonoGFX.c ****                 } else {
 799:MonoGFX/MonoGFX.c ****                     if (inversion) {
 866              		.loc 1 799 24
 867 003c FB78     		ldrb	r3, [r7, #3]	@ zero_extendqisi2
 868 003e 002B     		cmp	r3, #0
 869 0040 0DD0     		beq	.L43
 800:MonoGFX/MonoGFX.c ****                         MonoGFX_Draw_pixel(x, y + i, 1);  // –û—á–∏—Å—Ç–∏—Ç—å –ø–∏–∫—Å–µ–ª—å
 870              		.loc 1 800 25
 871 0042 FB7B     		ldrb	r3, [r7, #15]	@ zero_extendqisi2
 872 0044 18B2     		sxth	r0, r3
 873              		.loc 1 800 49
 874 0046 BB79     		ldrb	r3, [r7, #6]	@ zero_extendqisi2
 875 0048 9AB2     		uxth	r2, r3
 876 004a BB7B     		ldrb	r3, [r7, #14]	@ zero_extendqisi2
 877 004c 9BB2     		uxth	r3, r3
 878 004e 1344     		add	r3, r3, r2
 879 0050 9BB2     		uxth	r3, r3
 880              		.loc 1 800 25
 881 0052 1BB2     		sxth	r3, r3
 882 0054 0122     		movs	r2, #1
 883 0056 1946     		mov	r1, r3
 884 0058 FFF7FEFF 		bl	MonoGFX_Draw_pixel
 885 005c 0CE0     		b	.L44
 886              	.L43:
 801:MonoGFX/MonoGFX.c ****                     } else {
 802:MonoGFX/MonoGFX.c ****                         MonoGFX_Draw_pixel(x, y + i, 0);  // –û—á–∏—Å—Ç–∏—Ç—å –ø–∏–∫—Å–µ–ª—å
 887              		.loc 1 802 25
 888 005e FB7B     		ldrb	r3, [r7, #15]	@ zero_extendqisi2
 889 0060 18B2     		sxth	r0, r3
 890              		.loc 1 802 49
ARM GAS  C:\Users\Oleg\AppData\Local\Temp\ccxd6WqM.s 			page 35


 891 0062 BB79     		ldrb	r3, [r7, #6]	@ zero_extendqisi2
 892 0064 9AB2     		uxth	r2, r3
 893 0066 BB7B     		ldrb	r3, [r7, #14]	@ zero_extendqisi2
 894 0068 9BB2     		uxth	r3, r3
 895 006a 1344     		add	r3, r3, r2
 896 006c 9BB2     		uxth	r3, r3
 897              		.loc 1 802 25
 898 006e 1BB2     		sxth	r3, r3
 899 0070 0022     		movs	r2, #0
 900 0072 1946     		mov	r1, r3
 901 0074 FFF7FEFF 		bl	MonoGFX_Draw_pixel
 902              	.L44:
 791:MonoGFX/MonoGFX.c ****                 if (0x00 & (1 << i)) {
 903              		.loc 1 791 42 discriminator 2
 904 0078 BB7B     		ldrb	r3, [r7, #14]	@ zero_extendqisi2
 905 007a 0133     		adds	r3, r3, #1
 906 007c BB73     		strb	r3, [r7, #14]
 907              	.L42:
 791:MonoGFX/MonoGFX.c ****                 if (0x00 & (1 << i)) {
 908              		.loc 1 791 13 discriminator 1
 909 007e BB7B     		ldrb	r3, [r7, #14]	@ zero_extendqisi2
 910 0080 062B     		cmp	r3, #6
 911 0082 DBD9     		bls	.L45
 912 0084 57E0     		b	.L46
 913              	.L41:
 914              	.LBE8:
 915              	.LBB9:
 803:MonoGFX/MonoGFX.c ****                     }
 804:MonoGFX/MonoGFX.c ****                 }
 805:MonoGFX/MonoGFX.c ****             }
 806:MonoGFX/MonoGFX.c ****         } else {                                // –ó–∞–ø–æ–ª–Ω—è–µ–º –ø–æ–ª–µ–∑–Ω–æ–π –∏–Ω—Ñ–æ—Ä–º
 807:MonoGFX/MonoGFX.c ****             for (uint8_t i = 0; i <= 6; i++) {  // –æ—Ç 0 –¥–æ 6, —Ç.–∫. —à—Ä–∏—Ñ—Ç –≤—ã—Å–æ—Ç–æ–π 
 916              		.loc 1 807 26
 917 0086 0023     		movs	r3, #0
 918 0088 7B73     		strb	r3, [r7, #13]
 919              		.loc 1 807 13
 920 008a 51E0     		b	.L47
 921              	.L52:
 808:MonoGFX/MonoGFX.c ****                 if (Font_5x7[(symbol * 5) + x - x_start] & (1 << i)) {
 922              		.loc 1 808 38
 923 008c BA88     		ldrh	r2, [r7, #4]
 924 008e 1346     		mov	r3, r2
 925 0090 9B00     		lsls	r3, r3, #2
 926 0092 1A44     		add	r2, r2, r3
 927              		.loc 1 808 43
 928 0094 FB7B     		ldrb	r3, [r7, #15]	@ zero_extendqisi2
 929 0096 1A44     		add	r2, r2, r3
 930              		.loc 1 808 47
 931 0098 3B7B     		ldrb	r3, [r7, #12]	@ zero_extendqisi2
 932 009a D31A     		subs	r3, r2, r3
 933              		.loc 1 808 29
 934 009c 2C4A     		ldr	r2, .L54
 935 009e D35C     		ldrb	r3, [r2, r3]	@ zero_extendqisi2
 936 00a0 1A46     		mov	r2, r3
 937              		.loc 1 808 21
 938 00a2 7B7B     		ldrb	r3, [r7, #13]	@ zero_extendqisi2
 939 00a4 42FA03F3 		asr	r3, r2, r3
ARM GAS  C:\Users\Oleg\AppData\Local\Temp\ccxd6WqM.s 			page 36


 940 00a8 03F00103 		and	r3, r3, #1
 941              		.loc 1 808 20
 942 00ac 002B     		cmp	r3, #0
 943 00ae 1ED0     		beq	.L48
 809:MonoGFX/MonoGFX.c ****                     if (inversion) {
 944              		.loc 1 809 24
 945 00b0 FB78     		ldrb	r3, [r7, #3]	@ zero_extendqisi2
 946 00b2 002B     		cmp	r3, #0
 947 00b4 0DD0     		beq	.L49
 810:MonoGFX/MonoGFX.c ****                         MonoGFX_Draw_pixel(x, y + i, 0);  // –ó–∞–∫—Ä–∞—Å–∏—Ç—å –ø–∏–∫—Å–µ–ª—å
 948              		.loc 1 810 25
 949 00b6 FB7B     		ldrb	r3, [r7, #15]	@ zero_extendqisi2
 950 00b8 18B2     		sxth	r0, r3
 951              		.loc 1 810 49
 952 00ba BB79     		ldrb	r3, [r7, #6]	@ zero_extendqisi2
 953 00bc 9AB2     		uxth	r2, r3
 954 00be 7B7B     		ldrb	r3, [r7, #13]	@ zero_extendqisi2
 955 00c0 9BB2     		uxth	r3, r3
 956 00c2 1344     		add	r3, r3, r2
 957 00c4 9BB2     		uxth	r3, r3
 958              		.loc 1 810 25
 959 00c6 1BB2     		sxth	r3, r3
 960 00c8 0022     		movs	r2, #0
 961 00ca 1946     		mov	r1, r3
 962 00cc FFF7FEFF 		bl	MonoGFX_Draw_pixel
 963 00d0 2BE0     		b	.L50
 964              	.L49:
 811:MonoGFX/MonoGFX.c ****                     } else {
 812:MonoGFX/MonoGFX.c ****                         MonoGFX_Draw_pixel(x, y + i, 1);  // –ó–∞–∫—Ä–∞—Å–∏—Ç—å –ø–∏–∫—Å–µ–ª—å
 965              		.loc 1 812 25
 966 00d2 FB7B     		ldrb	r3, [r7, #15]	@ zero_extendqisi2
 967 00d4 18B2     		sxth	r0, r3
 968              		.loc 1 812 49
 969 00d6 BB79     		ldrb	r3, [r7, #6]	@ zero_extendqisi2
 970 00d8 9AB2     		uxth	r2, r3
 971 00da 7B7B     		ldrb	r3, [r7, #13]	@ zero_extendqisi2
 972 00dc 9BB2     		uxth	r3, r3
 973 00de 1344     		add	r3, r3, r2
 974 00e0 9BB2     		uxth	r3, r3
 975              		.loc 1 812 25
 976 00e2 1BB2     		sxth	r3, r3
 977 00e4 0122     		movs	r2, #1
 978 00e6 1946     		mov	r1, r3
 979 00e8 FFF7FEFF 		bl	MonoGFX_Draw_pixel
 980 00ec 1DE0     		b	.L50
 981              	.L48:
 813:MonoGFX/MonoGFX.c ****                     }
 814:MonoGFX/MonoGFX.c ****                 } else {
 815:MonoGFX/MonoGFX.c ****                     if (inversion) {
 982              		.loc 1 815 24
 983 00ee FB78     		ldrb	r3, [r7, #3]	@ zero_extendqisi2
 984 00f0 002B     		cmp	r3, #0
 985 00f2 0DD0     		beq	.L51
 816:MonoGFX/MonoGFX.c ****                         MonoGFX_Draw_pixel(x, y + i, 1);  // –û—á–∏—Å—Ç–∏—Ç—å –ø–∏–∫—Å–µ–ª—å
 986              		.loc 1 816 25
 987 00f4 FB7B     		ldrb	r3, [r7, #15]	@ zero_extendqisi2
 988 00f6 18B2     		sxth	r0, r3
ARM GAS  C:\Users\Oleg\AppData\Local\Temp\ccxd6WqM.s 			page 37


 989              		.loc 1 816 49
 990 00f8 BB79     		ldrb	r3, [r7, #6]	@ zero_extendqisi2
 991 00fa 9AB2     		uxth	r2, r3
 992 00fc 7B7B     		ldrb	r3, [r7, #13]	@ zero_extendqisi2
 993 00fe 9BB2     		uxth	r3, r3
 994 0100 1344     		add	r3, r3, r2
 995 0102 9BB2     		uxth	r3, r3
 996              		.loc 1 816 25
 997 0104 1BB2     		sxth	r3, r3
 998 0106 0122     		movs	r2, #1
 999 0108 1946     		mov	r1, r3
 1000 010a FFF7FEFF 		bl	MonoGFX_Draw_pixel
 1001 010e 0CE0     		b	.L50
 1002              	.L51:
 817:MonoGFX/MonoGFX.c ****                     } else {
 818:MonoGFX/MonoGFX.c ****                         MonoGFX_Draw_pixel(x, y + i, 0);  // –û—á–∏—Å—Ç–∏—Ç—å –ø–∏–∫—Å–µ–ª—å
 1003              		.loc 1 818 25
 1004 0110 FB7B     		ldrb	r3, [r7, #15]	@ zero_extendqisi2
 1005 0112 18B2     		sxth	r0, r3
 1006              		.loc 1 818 49
 1007 0114 BB79     		ldrb	r3, [r7, #6]	@ zero_extendqisi2
 1008 0116 9AB2     		uxth	r2, r3
 1009 0118 7B7B     		ldrb	r3, [r7, #13]	@ zero_extendqisi2
 1010 011a 9BB2     		uxth	r3, r3
 1011 011c 1344     		add	r3, r3, r2
 1012 011e 9BB2     		uxth	r3, r3
 1013              		.loc 1 818 25
 1014 0120 1BB2     		sxth	r3, r3
 1015 0122 0022     		movs	r2, #0
 1016 0124 1946     		mov	r1, r3
 1017 0126 FFF7FEFF 		bl	MonoGFX_Draw_pixel
 1018              	.L50:
 807:MonoGFX/MonoGFX.c ****                 if (Font_5x7[(symbol * 5) + x - x_start] & (1 << i)) {
 1019              		.loc 1 807 42 discriminator 2
 1020 012a 7B7B     		ldrb	r3, [r7, #13]	@ zero_extendqisi2
 1021 012c 0133     		adds	r3, r3, #1
 1022 012e 7B73     		strb	r3, [r7, #13]
 1023              	.L47:
 807:MonoGFX/MonoGFX.c ****                 if (Font_5x7[(symbol * 5) + x - x_start] & (1 << i)) {
 1024              		.loc 1 807 13 discriminator 1
 1025 0130 7B7B     		ldrb	r3, [r7, #13]	@ zero_extendqisi2
 1026 0132 062B     		cmp	r3, #6
 1027 0134 AAD9     		bls	.L52
 1028              	.L46:
 1029              	.LBE9:
 789:MonoGFX/MonoGFX.c ****         if (x == x_stop) {                      // –ó–∞–ø–æ–ª–Ω—è–µ–º –º–µ–∂—Å–∏–º–≤–æ–ª—å–Ω—ã–µ –∏
 1030              		.loc 1 789 45 discriminator 2
 1031 0136 FB7B     		ldrb	r3, [r7, #15]	@ zero_extendqisi2
 1032 0138 0133     		adds	r3, r3, #1
 1033 013a FB73     		strb	r3, [r7, #15]
 1034              	.L40:
 789:MonoGFX/MonoGFX.c ****         if (x == x_stop) {                      // –ó–∞–ø–æ–ª–Ω—è–µ–º –º–µ–∂—Å–∏–º–≤–æ–ª—å–Ω—ã–µ –∏
 1035              		.loc 1 789 5 discriminator 1
 1036 013c FA7B     		ldrb	r2, [r7, #15]	@ zero_extendqisi2
 1037 013e FB7A     		ldrb	r3, [r7, #11]	@ zero_extendqisi2
 1038 0140 9A42     		cmp	r2, r3
 1039 0142 7FF674AF 		bls	.L53
ARM GAS  C:\Users\Oleg\AppData\Local\Temp\ccxd6WqM.s 			page 38


 1040              	.LBE7:
 819:MonoGFX/MonoGFX.c ****                     }
 820:MonoGFX/MonoGFX.c ****                 }
 821:MonoGFX/MonoGFX.c ****             }
 822:MonoGFX/MonoGFX.c ****         }
 823:MonoGFX/MonoGFX.c ****     }
 824:MonoGFX/MonoGFX.c **** }
 1041              		.loc 1 824 1
 1042 0146 00BF     		nop
 1043 0148 00BF     		nop
 1044 014a 1437     		adds	r7, r7, #20
 1045              		.cfi_def_cfa_offset 12
 1046 014c BD46     		mov	sp, r7
 1047              		.cfi_def_cfa_register 13
 1048              		@ sp needed
 1049 014e 90BD     		pop	{r4, r7, pc}
 1050              	.L55:
 1051              		.align	2
 1052              	.L54:
 1053 0150 00000000 		.word	Font_5x7
 1054              		.cfi_endproc
 1055              	.LFE75:
 1057              		.section	.text.MonoGFX_Print_symbol_3x5,"ax",%progbits
 1058              		.align	1
 1059              		.global	MonoGFX_Print_symbol_3x5
 1060              		.syntax unified
 1061              		.thumb
 1062              		.thumb_func
 1064              	MonoGFX_Print_symbol_3x5:
 1065              	.LFB76:
 825:MonoGFX/MonoGFX.c **** 
 826:MonoGFX/MonoGFX.c **** /**
 827:MonoGFX/MonoGFX.c ****  ******************************************************************************
 828:MonoGFX/MonoGFX.c ****  *  @breif –§—É–Ω–∫—Ü–∏—è –≤—ã–≤–æ–¥–∞ —Å–∏–º–≤–æ–ª–∞ –Ω–∞ –¥–∏—Å–ø–ª–µ–π (—à—Ä–∏—Ñ—Ç 3x5)
 829:MonoGFX/MonoGFX.c ****  *  @param  uint8_t x - –Ω–∞—á–∞–ª—å–Ω–∞—è –∫–æ–æ—Ä–¥–∏–Ω–∞—Ç–∞ –ø–æ x
 830:MonoGFX/MonoGFX.c ****  *  @param  int8_t y - –Ω–∞—á–∞–ª—å–Ω–∞—è –∫–æ–æ—Ä–¥–∏–Ω–∞—Ç–∞ –ø–æ y
 831:MonoGFX/MonoGFX.c ****  *  @param  uint16_t symbol - –Ω–æ–º–µ—Ä —Å–∏–º–≤–æ–ª–∞ –∏–∑ —Ç–∞–±–ª–∏—Ü—ã UTF-8
 832:MonoGFX/MonoGFX.c ****  *  @param  uint8_t inversion - –∏–Ω–≤–µ—Ä—Å–∏—è —Å–∏–º–≤–æ–ª–∞ (1/0)
 833:MonoGFX/MonoGFX.c ****  ******************************************************************************
 834:MonoGFX/MonoGFX.c ****  */
 835:MonoGFX/MonoGFX.c **** 
 836:MonoGFX/MonoGFX.c **** void MonoGFX_Print_symbol_3x5(uint8_t x, uint8_t y, uint16_t symbol, uint8_t inversion) {
 1066              		.loc 1 836 89
 1067              		.cfi_startproc
 1068              		@ args = 0, pretend = 0, frame = 16
 1069              		@ frame_needed = 1, uses_anonymous_args = 0
 1070 0000 90B5     		push	{r4, r7, lr}
 1071              		.cfi_def_cfa_offset 12
 1072              		.cfi_offset 4, -12
 1073              		.cfi_offset 7, -8
 1074              		.cfi_offset 14, -4
 1075 0002 85B0     		sub	sp, sp, #20
 1076              		.cfi_def_cfa_offset 32
 1077 0004 00AF     		add	r7, sp, #0
 1078              		.cfi_def_cfa_register 7
 1079 0006 0446     		mov	r4, r0
 1080 0008 0846     		mov	r0, r1
ARM GAS  C:\Users\Oleg\AppData\Local\Temp\ccxd6WqM.s 			page 39


 1081 000a 1146     		mov	r1, r2
 1082 000c 1A46     		mov	r2, r3
 1083 000e 2346     		mov	r3, r4
 1084 0010 FB71     		strb	r3, [r7, #7]
 1085 0012 0346     		mov	r3, r0
 1086 0014 BB71     		strb	r3, [r7, #6]
 1087 0016 0B46     		mov	r3, r1	@ movhi
 1088 0018 BB80     		strh	r3, [r7, #4]	@ movhi
 1089 001a 1346     		mov	r3, r2
 1090 001c FB70     		strb	r3, [r7, #3]
 837:MonoGFX/MonoGFX.c ****     /// –§—É–Ω–∫—Ü–∏—è –≤—ã–≤–æ–¥–∞ —Å–∏–º–≤–æ–ª–∞ –Ω–∞ –¥–∏—Å–ø–ª–µ–π
 838:MonoGFX/MonoGFX.c ****     uint8_t x_start = x;     // –Ω–∞—á–∞–ª—å–Ω–æ–µ –ø–æ–ª–æ–∂–µ–Ω–∏–µ –ø–æ x
 1091              		.loc 1 838 13
 1092 001e FB79     		ldrb	r3, [r7, #7]
 1093 0020 3B73     		strb	r3, [r7, #12]
 839:MonoGFX/MonoGFX.c ****     uint8_t x_stop = x + 3;  // –∫–æ–Ω–µ—á–Ω–æ–µ –ø–æ–ª–æ–∂–µ–Ω–∏–µ –ø–æ x —Å —É—á–µ—Ç–æ–º –º–µ–∂—Å
 1094              		.loc 1 839 13
 1095 0022 FB79     		ldrb	r3, [r7, #7]
 1096 0024 0333     		adds	r3, r3, #3
 1097 0026 FB72     		strb	r3, [r7, #11]
 1098              	.LBB10:
 840:MonoGFX/MonoGFX.c ****     for (uint8_t x = x_start; x <= x_stop; x++) {
 1099              		.loc 1 840 18
 1100 0028 3B7B     		ldrb	r3, [r7, #12]
 1101 002a FB73     		strb	r3, [r7, #15]
 1102              		.loc 1 840 5
 1103 002c 86E0     		b	.L57
 1104              	.L70:
 841:MonoGFX/MonoGFX.c ****         if (x == x_stop) {                      // –ó–∞–ø–æ–ª–Ω—è–µ–º –º–µ–∂—Å–∏–º–≤–æ–ª—å–Ω—ã–µ –∏
 1105              		.loc 1 841 12
 1106 002e FA7B     		ldrb	r2, [r7, #15]	@ zero_extendqisi2
 1107 0030 FB7A     		ldrb	r3, [r7, #11]	@ zero_extendqisi2
 1108 0032 9A42     		cmp	r2, r3
 1109 0034 27D1     		bne	.L58
 1110              	.LBB11:
 842:MonoGFX/MonoGFX.c ****             for (uint8_t i = 0; i <= 4; i++) {  // –æ—Ç 0 –¥–æ 6, —Ç.–∫. —à—Ä–∏—Ñ—Ç –≤—ã—Å–æ—Ç–æ–π 
 1111              		.loc 1 842 26
 1112 0036 0023     		movs	r3, #0
 1113 0038 BB73     		strb	r3, [r7, #14]
 1114              		.loc 1 842 13
 1115 003a 20E0     		b	.L59
 1116              	.L62:
 843:MonoGFX/MonoGFX.c ****                 if (0x00 & (1 << i)) {
 844:MonoGFX/MonoGFX.c ****                     if (inversion) {
 845:MonoGFX/MonoGFX.c ****                         MonoGFX_Draw_pixel(x, y + i, 0);  // –ó–∞–∫—Ä–∞—Å–∏—Ç—å –ø–∏–∫—Å–µ–ª—å
 846:MonoGFX/MonoGFX.c ****                     } else {
 847:MonoGFX/MonoGFX.c ****                         MonoGFX_Draw_pixel(x, y + i, 1);  // –ó–∞–∫—Ä–∞—Å–∏—Ç—å –ø–∏–∫—Å–µ–ª—å
 848:MonoGFX/MonoGFX.c ****                     }
 849:MonoGFX/MonoGFX.c ****                 } else {
 850:MonoGFX/MonoGFX.c ****                     if (inversion) {
 1117              		.loc 1 850 24
 1118 003c FB78     		ldrb	r3, [r7, #3]	@ zero_extendqisi2
 1119 003e 002B     		cmp	r3, #0
 1120 0040 0DD0     		beq	.L60
 851:MonoGFX/MonoGFX.c ****                         MonoGFX_Draw_pixel(x, y + i, 1);  // –û—á–∏—Å—Ç–∏—Ç—å –ø–∏–∫—Å–µ–ª—å
 1121              		.loc 1 851 25
 1122 0042 FB7B     		ldrb	r3, [r7, #15]	@ zero_extendqisi2
ARM GAS  C:\Users\Oleg\AppData\Local\Temp\ccxd6WqM.s 			page 40


 1123 0044 18B2     		sxth	r0, r3
 1124              		.loc 1 851 49
 1125 0046 BB79     		ldrb	r3, [r7, #6]	@ zero_extendqisi2
 1126 0048 9AB2     		uxth	r2, r3
 1127 004a BB7B     		ldrb	r3, [r7, #14]	@ zero_extendqisi2
 1128 004c 9BB2     		uxth	r3, r3
 1129 004e 1344     		add	r3, r3, r2
 1130 0050 9BB2     		uxth	r3, r3
 1131              		.loc 1 851 25
 1132 0052 1BB2     		sxth	r3, r3
 1133 0054 0122     		movs	r2, #1
 1134 0056 1946     		mov	r1, r3
 1135 0058 FFF7FEFF 		bl	MonoGFX_Draw_pixel
 1136 005c 0CE0     		b	.L61
 1137              	.L60:
 852:MonoGFX/MonoGFX.c ****                     } else {
 853:MonoGFX/MonoGFX.c ****                         MonoGFX_Draw_pixel(x, y + i, 0);  // –û—á–∏—Å—Ç–∏—Ç—å –ø–∏–∫—Å–µ–ª—å
 1138              		.loc 1 853 25
 1139 005e FB7B     		ldrb	r3, [r7, #15]	@ zero_extendqisi2
 1140 0060 18B2     		sxth	r0, r3
 1141              		.loc 1 853 49
 1142 0062 BB79     		ldrb	r3, [r7, #6]	@ zero_extendqisi2
 1143 0064 9AB2     		uxth	r2, r3
 1144 0066 BB7B     		ldrb	r3, [r7, #14]	@ zero_extendqisi2
 1145 0068 9BB2     		uxth	r3, r3
 1146 006a 1344     		add	r3, r3, r2
 1147 006c 9BB2     		uxth	r3, r3
 1148              		.loc 1 853 25
 1149 006e 1BB2     		sxth	r3, r3
 1150 0070 0022     		movs	r2, #0
 1151 0072 1946     		mov	r1, r3
 1152 0074 FFF7FEFF 		bl	MonoGFX_Draw_pixel
 1153              	.L61:
 842:MonoGFX/MonoGFX.c ****                 if (0x00 & (1 << i)) {
 1154              		.loc 1 842 42 discriminator 2
 1155 0078 BB7B     		ldrb	r3, [r7, #14]	@ zero_extendqisi2
 1156 007a 0133     		adds	r3, r3, #1
 1157 007c BB73     		strb	r3, [r7, #14]
 1158              	.L59:
 842:MonoGFX/MonoGFX.c ****                 if (0x00 & (1 << i)) {
 1159              		.loc 1 842 13 discriminator 1
 1160 007e BB7B     		ldrb	r3, [r7, #14]	@ zero_extendqisi2
 1161 0080 042B     		cmp	r3, #4
 1162 0082 DBD9     		bls	.L62
 1163 0084 57E0     		b	.L63
 1164              	.L58:
 1165              	.LBE11:
 1166              	.LBB12:
 854:MonoGFX/MonoGFX.c ****                     }
 855:MonoGFX/MonoGFX.c ****                 }
 856:MonoGFX/MonoGFX.c ****             }
 857:MonoGFX/MonoGFX.c ****         } else {                                // –ó–∞–ø–æ–ª–Ω—è–µ–º –ø–æ–ª–µ–∑–Ω–æ–π –∏–Ω—Ñ–æ—Ä–º
 858:MonoGFX/MonoGFX.c ****             for (uint8_t i = 0; i <= 4; i++) {  // –æ—Ç 0 –¥–æ 6, —Ç.–∫. —à—Ä–∏—Ñ—Ç –≤—ã—Å–æ—Ç–æ–π 
 1167              		.loc 1 858 26
 1168 0086 0023     		movs	r3, #0
 1169 0088 7B73     		strb	r3, [r7, #13]
 1170              		.loc 1 858 13
ARM GAS  C:\Users\Oleg\AppData\Local\Temp\ccxd6WqM.s 			page 41


 1171 008a 51E0     		b	.L64
 1172              	.L69:
 859:MonoGFX/MonoGFX.c ****                 if (Font_3x5[(symbol * 3) + x - x_start] & (1 << i)) {
 1173              		.loc 1 859 38
 1174 008c BA88     		ldrh	r2, [r7, #4]
 1175 008e 1346     		mov	r3, r2
 1176 0090 5B00     		lsls	r3, r3, #1
 1177 0092 1A44     		add	r2, r2, r3
 1178              		.loc 1 859 43
 1179 0094 FB7B     		ldrb	r3, [r7, #15]	@ zero_extendqisi2
 1180 0096 1A44     		add	r2, r2, r3
 1181              		.loc 1 859 47
 1182 0098 3B7B     		ldrb	r3, [r7, #12]	@ zero_extendqisi2
 1183 009a D31A     		subs	r3, r2, r3
 1184              		.loc 1 859 29
 1185 009c 2C4A     		ldr	r2, .L71
 1186 009e D35C     		ldrb	r3, [r2, r3]	@ zero_extendqisi2
 1187 00a0 1A46     		mov	r2, r3
 1188              		.loc 1 859 21
 1189 00a2 7B7B     		ldrb	r3, [r7, #13]	@ zero_extendqisi2
 1190 00a4 42FA03F3 		asr	r3, r2, r3
 1191 00a8 03F00103 		and	r3, r3, #1
 1192              		.loc 1 859 20
 1193 00ac 002B     		cmp	r3, #0
 1194 00ae 1ED0     		beq	.L65
 860:MonoGFX/MonoGFX.c ****                     if (inversion) {
 1195              		.loc 1 860 24
 1196 00b0 FB78     		ldrb	r3, [r7, #3]	@ zero_extendqisi2
 1197 00b2 002B     		cmp	r3, #0
 1198 00b4 0DD0     		beq	.L66
 861:MonoGFX/MonoGFX.c ****                         MonoGFX_Draw_pixel(x, y + i, 0);  // –ó–∞–∫—Ä–∞—Å–∏—Ç—å –ø–∏–∫—Å–µ–ª—å
 1199              		.loc 1 861 25
 1200 00b6 FB7B     		ldrb	r3, [r7, #15]	@ zero_extendqisi2
 1201 00b8 18B2     		sxth	r0, r3
 1202              		.loc 1 861 49
 1203 00ba BB79     		ldrb	r3, [r7, #6]	@ zero_extendqisi2
 1204 00bc 9AB2     		uxth	r2, r3
 1205 00be 7B7B     		ldrb	r3, [r7, #13]	@ zero_extendqisi2
 1206 00c0 9BB2     		uxth	r3, r3
 1207 00c2 1344     		add	r3, r3, r2
 1208 00c4 9BB2     		uxth	r3, r3
 1209              		.loc 1 861 25
 1210 00c6 1BB2     		sxth	r3, r3
 1211 00c8 0022     		movs	r2, #0
 1212 00ca 1946     		mov	r1, r3
 1213 00cc FFF7FEFF 		bl	MonoGFX_Draw_pixel
 1214 00d0 2BE0     		b	.L67
 1215              	.L66:
 862:MonoGFX/MonoGFX.c ****                     } else {
 863:MonoGFX/MonoGFX.c ****                         MonoGFX_Draw_pixel(x, y + i, 1);  // –ó–∞–∫—Ä–∞—Å–∏—Ç—å –ø–∏–∫—Å–µ–ª—å
 1216              		.loc 1 863 25
 1217 00d2 FB7B     		ldrb	r3, [r7, #15]	@ zero_extendqisi2
 1218 00d4 18B2     		sxth	r0, r3
 1219              		.loc 1 863 49
 1220 00d6 BB79     		ldrb	r3, [r7, #6]	@ zero_extendqisi2
 1221 00d8 9AB2     		uxth	r2, r3
 1222 00da 7B7B     		ldrb	r3, [r7, #13]	@ zero_extendqisi2
ARM GAS  C:\Users\Oleg\AppData\Local\Temp\ccxd6WqM.s 			page 42


 1223 00dc 9BB2     		uxth	r3, r3
 1224 00de 1344     		add	r3, r3, r2
 1225 00e0 9BB2     		uxth	r3, r3
 1226              		.loc 1 863 25
 1227 00e2 1BB2     		sxth	r3, r3
 1228 00e4 0122     		movs	r2, #1
 1229 00e6 1946     		mov	r1, r3
 1230 00e8 FFF7FEFF 		bl	MonoGFX_Draw_pixel
 1231 00ec 1DE0     		b	.L67
 1232              	.L65:
 864:MonoGFX/MonoGFX.c ****                     }
 865:MonoGFX/MonoGFX.c ****                 } else {
 866:MonoGFX/MonoGFX.c ****                     if (inversion) {
 1233              		.loc 1 866 24
 1234 00ee FB78     		ldrb	r3, [r7, #3]	@ zero_extendqisi2
 1235 00f0 002B     		cmp	r3, #0
 1236 00f2 0DD0     		beq	.L68
 867:MonoGFX/MonoGFX.c ****                         MonoGFX_Draw_pixel(x, y + i, 1);  // –û—á–∏—Å—Ç–∏—Ç—å –ø–∏–∫—Å–µ–ª—å
 1237              		.loc 1 867 25
 1238 00f4 FB7B     		ldrb	r3, [r7, #15]	@ zero_extendqisi2
 1239 00f6 18B2     		sxth	r0, r3
 1240              		.loc 1 867 49
 1241 00f8 BB79     		ldrb	r3, [r7, #6]	@ zero_extendqisi2
 1242 00fa 9AB2     		uxth	r2, r3
 1243 00fc 7B7B     		ldrb	r3, [r7, #13]	@ zero_extendqisi2
 1244 00fe 9BB2     		uxth	r3, r3
 1245 0100 1344     		add	r3, r3, r2
 1246 0102 9BB2     		uxth	r3, r3
 1247              		.loc 1 867 25
 1248 0104 1BB2     		sxth	r3, r3
 1249 0106 0122     		movs	r2, #1
 1250 0108 1946     		mov	r1, r3
 1251 010a FFF7FEFF 		bl	MonoGFX_Draw_pixel
 1252 010e 0CE0     		b	.L67
 1253              	.L68:
 868:MonoGFX/MonoGFX.c ****                     } else {
 869:MonoGFX/MonoGFX.c ****                         MonoGFX_Draw_pixel(x, y + i, 0);  // –û—á–∏—Å—Ç–∏—Ç—å –ø–∏–∫—Å–µ–ª—å
 1254              		.loc 1 869 25
 1255 0110 FB7B     		ldrb	r3, [r7, #15]	@ zero_extendqisi2
 1256 0112 18B2     		sxth	r0, r3
 1257              		.loc 1 869 49
 1258 0114 BB79     		ldrb	r3, [r7, #6]	@ zero_extendqisi2
 1259 0116 9AB2     		uxth	r2, r3
 1260 0118 7B7B     		ldrb	r3, [r7, #13]	@ zero_extendqisi2
 1261 011a 9BB2     		uxth	r3, r3
 1262 011c 1344     		add	r3, r3, r2
 1263 011e 9BB2     		uxth	r3, r3
 1264              		.loc 1 869 25
 1265 0120 1BB2     		sxth	r3, r3
 1266 0122 0022     		movs	r2, #0
 1267 0124 1946     		mov	r1, r3
 1268 0126 FFF7FEFF 		bl	MonoGFX_Draw_pixel
 1269              	.L67:
 858:MonoGFX/MonoGFX.c ****                 if (Font_3x5[(symbol * 3) + x - x_start] & (1 << i)) {
 1270              		.loc 1 858 42 discriminator 2
 1271 012a 7B7B     		ldrb	r3, [r7, #13]	@ zero_extendqisi2
 1272 012c 0133     		adds	r3, r3, #1
ARM GAS  C:\Users\Oleg\AppData\Local\Temp\ccxd6WqM.s 			page 43


 1273 012e 7B73     		strb	r3, [r7, #13]
 1274              	.L64:
 858:MonoGFX/MonoGFX.c ****                 if (Font_3x5[(symbol * 3) + x - x_start] & (1 << i)) {
 1275              		.loc 1 858 13 discriminator 1
 1276 0130 7B7B     		ldrb	r3, [r7, #13]	@ zero_extendqisi2
 1277 0132 042B     		cmp	r3, #4
 1278 0134 AAD9     		bls	.L69
 1279              	.L63:
 1280              	.LBE12:
 840:MonoGFX/MonoGFX.c ****         if (x == x_stop) {                      // –ó–∞–ø–æ–ª–Ω—è–µ–º –º–µ–∂—Å–∏–º–≤–æ–ª—å–Ω—ã–µ –∏
 1281              		.loc 1 840 45 discriminator 2
 1282 0136 FB7B     		ldrb	r3, [r7, #15]	@ zero_extendqisi2
 1283 0138 0133     		adds	r3, r3, #1
 1284 013a FB73     		strb	r3, [r7, #15]
 1285              	.L57:
 840:MonoGFX/MonoGFX.c ****         if (x == x_stop) {                      // –ó–∞–ø–æ–ª–Ω—è–µ–º –º–µ–∂—Å–∏–º–≤–æ–ª—å–Ω—ã–µ –∏
 1286              		.loc 1 840 5 discriminator 1
 1287 013c FA7B     		ldrb	r2, [r7, #15]	@ zero_extendqisi2
 1288 013e FB7A     		ldrb	r3, [r7, #11]	@ zero_extendqisi2
 1289 0140 9A42     		cmp	r2, r3
 1290 0142 7FF674AF 		bls	.L70
 1291              	.LBE10:
 870:MonoGFX/MonoGFX.c ****                     }
 871:MonoGFX/MonoGFX.c ****                 }
 872:MonoGFX/MonoGFX.c ****             }
 873:MonoGFX/MonoGFX.c ****         }
 874:MonoGFX/MonoGFX.c ****     }
 875:MonoGFX/MonoGFX.c **** }
 1292              		.loc 1 875 1
 1293 0146 00BF     		nop
 1294 0148 00BF     		nop
 1295 014a 1437     		adds	r7, r7, #20
 1296              		.cfi_def_cfa_offset 12
 1297 014c BD46     		mov	sp, r7
 1298              		.cfi_def_cfa_register 13
 1299              		@ sp needed
 1300 014e 90BD     		pop	{r4, r7, pc}
 1301              	.L72:
 1302              		.align	2
 1303              	.L71:
 1304 0150 00000000 		.word	Font_3x5
 1305              		.cfi_endproc
 1306              	.LFE76:
 1308              		.section	.text.MonoGFX_Decode_UTF8,"ax",%progbits
 1309              		.align	1
 1310              		.global	MonoGFX_Decode_UTF8
 1311              		.syntax unified
 1312              		.thumb
 1313              		.thumb_func
 1315              	MonoGFX_Decode_UTF8:
 1316              	.LFB77:
 876:MonoGFX/MonoGFX.c **** 
 877:MonoGFX/MonoGFX.c **** /**
 878:MonoGFX/MonoGFX.c ****  ******************************************************************************
 879:MonoGFX/MonoGFX.c ****  *  @breif –§—É–Ω–∫—Ü–∏—è –¥–µ–∫–æ–¥–∏—Ä–æ–≤–∞–Ω–∏—è UTF-8 –≤ –Ω–∞–±–æ—Ä —Å–∏–º–≤–æ–ª–æ–≤
 880:MonoGFX/MonoGFX.c ****  *  @param  uint8_t x - –Ω–∞—á–∞–ª—å–Ω–∞—è –∫–æ–æ—Ä–¥–∏–Ω–∞—Ç–∞ –ø–æ x
 881:MonoGFX/MonoGFX.c ****  *  @param  int8_t y - –Ω–∞—á–∞–ª—å–Ω–∞—è –∫–æ–æ—Ä–¥–∏–Ω–∞—Ç–∞ –ø–æ y
ARM GAS  C:\Users\Oleg\AppData\Local\Temp\ccxd6WqM.s 			page 44


 882:MonoGFX/MonoGFX.c ****  *  @param  uint8_t font - —à—Ä–∏—Ñ—Ç. 0 - 3x5, 1 - 5x7
 883:MonoGFX/MonoGFX.c ****  *  @param  char *MonoGFX_tx_buffer - —Ç–µ–∫—Å—Ç–æ–≤—ã–π –±—É—Ñ–µ—Ä, –≤ –∫–æ—Ç–æ—Ä—ã–π –ø–∏—à–µ–º —
 884:MonoGFX/MonoGFX.c ****  ******************************************************************************
 885:MonoGFX/MonoGFX.c ****  */
 886:MonoGFX/MonoGFX.c **** 
 887:MonoGFX/MonoGFX.c **** void MonoGFX_Decode_UTF8(uint8_t x, uint8_t y, uint8_t font, bool inversion, char *MonoGFX_tx_buffe
 1317              		.loc 1 887 103
 1318              		.cfi_startproc
 1319              		@ args = 4, pretend = 0, frame = 24
 1320              		@ frame_needed = 1, uses_anonymous_args = 0
 1321 0000 90B5     		push	{r4, r7, lr}
 1322              		.cfi_def_cfa_offset 12
 1323              		.cfi_offset 4, -12
 1324              		.cfi_offset 7, -8
 1325              		.cfi_offset 14, -4
 1326 0002 87B0     		sub	sp, sp, #28
 1327              		.cfi_def_cfa_offset 40
 1328 0004 00AF     		add	r7, sp, #0
 1329              		.cfi_def_cfa_register 7
 1330 0006 0446     		mov	r4, r0
 1331 0008 0846     		mov	r0, r1
 1332 000a 1146     		mov	r1, r2
 1333 000c 1A46     		mov	r2, r3
 1334 000e 2346     		mov	r3, r4
 1335 0010 FB71     		strb	r3, [r7, #7]
 1336 0012 0346     		mov	r3, r0
 1337 0014 BB71     		strb	r3, [r7, #6]
 1338 0016 0B46     		mov	r3, r1
 1339 0018 7B71     		strb	r3, [r7, #5]
 1340 001a 1346     		mov	r3, r2
 1341 001c 3B71     		strb	r3, [r7, #4]
 888:MonoGFX/MonoGFX.c ****     uint16_t symbol = 0;
 1342              		.loc 1 888 14
 1343 001e 0023     		movs	r3, #0
 1344 0020 FB81     		strh	r3, [r7, #14]	@ movhi
 889:MonoGFX/MonoGFX.c ****     bool flag_block = 0;
 1345              		.loc 1 889 10
 1346 0022 0023     		movs	r3, #0
 1347 0024 FB75     		strb	r3, [r7, #23]
 1348              	.LBB13:
 890:MonoGFX/MonoGFX.c ****     for (int i = 0; i < strlen(MonoGFX_tx_buffer); i++) {
 1349              		.loc 1 890 14
 1350 0026 0023     		movs	r3, #0
 1351 0028 3B61     		str	r3, [r7, #16]
 1352              		.loc 1 890 5
 1353 002a 7EE1     		b	.L74
 1354              	.L114:
 891:MonoGFX/MonoGFX.c ****         if (MonoGFX_tx_buffer[i] < 0xC0) {  // –ê–Ω–≥–ª–∏–π—Å–∫–∏–π —Ç–µ–∫—Å—Ç –∏ —Å–∏–º–≤–æ–ª—ã. –
 1355              		.loc 1 891 30
 1356 002c 3B69     		ldr	r3, [r7, #16]
 1357 002e BA6A     		ldr	r2, [r7, #40]
 1358 0030 1344     		add	r3, r3, r2
 1359 0032 1B78     		ldrb	r3, [r3]	@ zero_extendqisi2
 1360              		.loc 1 891 12
 1361 0034 BF2B     		cmp	r3, #191
 1362 0036 41D8     		bhi	.L75
 892:MonoGFX/MonoGFX.c ****             if (flag_block) {
ARM GAS  C:\Users\Oleg\AppData\Local\Temp\ccxd6WqM.s 			page 45


 1363              		.loc 1 892 16
 1364 0038 FB7D     		ldrb	r3, [r7, #23]	@ zero_extendqisi2
 1365 003a 002B     		cmp	r3, #0
 1366 003c 02D0     		beq	.L76
 893:MonoGFX/MonoGFX.c ****                 flag_block = 0;
 1367              		.loc 1 893 28
 1368 003e 0023     		movs	r3, #0
 1369 0040 FB75     		strb	r3, [r7, #23]
 1370 0042 6FE1     		b	.L77
 1371              	.L76:
 894:MonoGFX/MonoGFX.c ****             } else {
 895:MonoGFX/MonoGFX.c ****                 symbol = MonoGFX_tx_buffer[i];
 1372              		.loc 1 895 43
 1373 0044 3B69     		ldr	r3, [r7, #16]
 1374 0046 BA6A     		ldr	r2, [r7, #40]
 1375 0048 1344     		add	r3, r3, r2
 1376 004a 1B78     		ldrb	r3, [r3]	@ zero_extendqisi2
 1377              		.loc 1 895 24
 1378 004c FB81     		strh	r3, [r7, #14]	@ movhi
 896:MonoGFX/MonoGFX.c ****                 if (font == FONT_3X5) {  // –ï—Å–ª–∏ –≤—ã–±—Ä–∞–Ω —à—Ä–∏—Ñ—Ç —Ä–∞–∑–º–µ—Ä–∞ 3x5
 1379              		.loc 1 896 20
 1380 004e 7B79     		ldrb	r3, [r7, #5]	@ zero_extendqisi2
 1381 0050 002B     		cmp	r3, #0
 1382 0052 17D1     		bne	.L78
 897:MonoGFX/MonoGFX.c ****                     if (inversion) {
 1383              		.loc 1 897 24
 1384 0054 3B79     		ldrb	r3, [r7, #4]	@ zero_extendqisi2
 1385 0056 002B     		cmp	r3, #0
 1386 0058 08D0     		beq	.L79
 898:MonoGFX/MonoGFX.c ****                         MonoGFX_Print_symbol_3x5(x, y, symbol - 32, 1);  // –¢–∞–±–ª–∏—Ü–∞ UTF-8. B
 1387              		.loc 1 898 25
 1388 005a FB89     		ldrh	r3, [r7, #14]	@ movhi
 1389 005c 203B     		subs	r3, r3, #32
 1390 005e 9AB2     		uxth	r2, r3
 1391 0060 B979     		ldrb	r1, [r7, #6]	@ zero_extendqisi2
 1392 0062 F879     		ldrb	r0, [r7, #7]	@ zero_extendqisi2
 1393 0064 0123     		movs	r3, #1
 1394 0066 FFF7FEFF 		bl	MonoGFX_Print_symbol_3x5
 1395 006a 07E0     		b	.L80
 1396              	.L79:
 899:MonoGFX/MonoGFX.c ****                     } else {
 900:MonoGFX/MonoGFX.c ****                         MonoGFX_Print_symbol_3x5(x, y, symbol - 32, 0);  // –¢–∞–±–ª–∏—Ü–∞ UTF-8. B
 1397              		.loc 1 900 25
 1398 006c FB89     		ldrh	r3, [r7, #14]	@ movhi
 1399 006e 203B     		subs	r3, r3, #32
 1400 0070 9AB2     		uxth	r2, r3
 1401 0072 B979     		ldrb	r1, [r7, #6]	@ zero_extendqisi2
 1402 0074 F879     		ldrb	r0, [r7, #7]	@ zero_extendqisi2
 1403 0076 0023     		movs	r3, #0
 1404 0078 FFF7FEFF 		bl	MonoGFX_Print_symbol_3x5
 1405              	.L80:
 901:MonoGFX/MonoGFX.c ****                     }
 902:MonoGFX/MonoGFX.c ****                     x = x + 4;
 1406              		.loc 1 902 23
 1407 007c FB79     		ldrb	r3, [r7, #7]
 1408 007e 0433     		adds	r3, r3, #4
 1409 0080 FB71     		strb	r3, [r7, #7]
ARM GAS  C:\Users\Oleg\AppData\Local\Temp\ccxd6WqM.s 			page 46


 1410 0082 4FE1     		b	.L77
 1411              	.L78:
 903:MonoGFX/MonoGFX.c ****                 } else if (font == FONT_5X7) {  // –ï—Å–ª–∏ –≤—ã–±—Ä–∞–Ω —à—Ä–∏—Ñ—Ç —Ä–∞–∑–º–µ—Ä–∞ 
 1412              		.loc 1 903 27
 1413 0084 7B79     		ldrb	r3, [r7, #5]	@ zero_extendqisi2
 1414 0086 012B     		cmp	r3, #1
 1415 0088 40F04C81 		bne	.L77
 904:MonoGFX/MonoGFX.c ****                     if (inversion) {
 1416              		.loc 1 904 24
 1417 008c 3B79     		ldrb	r3, [r7, #4]	@ zero_extendqisi2
 1418 008e 002B     		cmp	r3, #0
 1419 0090 08D0     		beq	.L81
 905:MonoGFX/MonoGFX.c ****                         MonoGFX_Print_symbol_5x7(x, y, symbol - 32, 1);  // –¢–∞–±–ª–∏—Ü–∞ UTF-8. B
 1420              		.loc 1 905 25
 1421 0092 FB89     		ldrh	r3, [r7, #14]	@ movhi
 1422 0094 203B     		subs	r3, r3, #32
 1423 0096 9AB2     		uxth	r2, r3
 1424 0098 B979     		ldrb	r1, [r7, #6]	@ zero_extendqisi2
 1425 009a F879     		ldrb	r0, [r7, #7]	@ zero_extendqisi2
 1426 009c 0123     		movs	r3, #1
 1427 009e FFF7FEFF 		bl	MonoGFX_Print_symbol_5x7
 1428 00a2 07E0     		b	.L82
 1429              	.L81:
 906:MonoGFX/MonoGFX.c ****                     } else {
 907:MonoGFX/MonoGFX.c ****                         MonoGFX_Print_symbol_5x7(x, y, symbol - 32, 0);  // –¢–∞–±–ª–∏—Ü–∞ UTF-8. B
 1430              		.loc 1 907 25
 1431 00a4 FB89     		ldrh	r3, [r7, #14]	@ movhi
 1432 00a6 203B     		subs	r3, r3, #32
 1433 00a8 9AB2     		uxth	r2, r3
 1434 00aa B979     		ldrb	r1, [r7, #6]	@ zero_extendqisi2
 1435 00ac F879     		ldrb	r0, [r7, #7]	@ zero_extendqisi2
 1436 00ae 0023     		movs	r3, #0
 1437 00b0 FFF7FEFF 		bl	MonoGFX_Print_symbol_5x7
 1438              	.L82:
 908:MonoGFX/MonoGFX.c ****                     }
 909:MonoGFX/MonoGFX.c ****                     x = x + 6;
 1439              		.loc 1 909 23
 1440 00b4 FB79     		ldrb	r3, [r7, #7]
 1441 00b6 0633     		adds	r3, r3, #6
 1442 00b8 FB71     		strb	r3, [r7, #7]
 1443 00ba 33E1     		b	.L77
 1444              	.L75:
 910:MonoGFX/MonoGFX.c ****                 }
 911:MonoGFX/MonoGFX.c ****             }
 912:MonoGFX/MonoGFX.c ****         }
 913:MonoGFX/MonoGFX.c **** 
 914:MonoGFX/MonoGFX.c ****         else {  // –†—É—Å—Å–∫–∏–π —Ç–µ–∫—Å—Ç
 915:MonoGFX/MonoGFX.c ****             symbol = MonoGFX_tx_buffer[i] << 8 | MonoGFX_tx_buffer[i + 1];
 1445              		.loc 1 915 39
 1446 00bc 3B69     		ldr	r3, [r7, #16]
 1447 00be BA6A     		ldr	r2, [r7, #40]
 1448 00c0 1344     		add	r3, r3, r2
 1449 00c2 1B78     		ldrb	r3, [r3]	@ zero_extendqisi2
 1450              		.loc 1 915 43
 1451 00c4 1B02     		lsls	r3, r3, #8
 1452              		.loc 1 915 48
 1453 00c6 1AB2     		sxth	r2, r3
ARM GAS  C:\Users\Oleg\AppData\Local\Temp\ccxd6WqM.s 			page 47


 1454              		.loc 1 915 67
 1455 00c8 3B69     		ldr	r3, [r7, #16]
 1456 00ca 0133     		adds	r3, r3, #1
 1457 00cc B96A     		ldr	r1, [r7, #40]
 1458 00ce 0B44     		add	r3, r3, r1
 1459 00d0 1B78     		ldrb	r3, [r3]	@ zero_extendqisi2
 1460 00d2 1BB2     		sxth	r3, r3
 1461              		.loc 1 915 48
 1462 00d4 1343     		orrs	r3, r3, r2
 1463 00d6 1BB2     		sxth	r3, r3
 1464              		.loc 1 915 20
 1465 00d8 FB81     		strh	r3, [r7, #14]	@ movhi
 916:MonoGFX/MonoGFX.c ****             if (symbol < 0xD180 && symbol > 0xD081) {
 1466              		.loc 1 916 16
 1467 00da FB89     		ldrh	r3, [r7, #14]
 1468 00dc 4DF27F12 		movw	r2, #53631
 1469 00e0 9342     		cmp	r3, r2
 1470 00e2 43D8     		bhi	.L83
 1471              		.loc 1 916 33 discriminator 1
 1472 00e4 FB89     		ldrh	r3, [r7, #14]
 1473 00e6 4DF28102 		movw	r2, #53377
 1474 00ea 9342     		cmp	r3, r2
 1475 00ec 3ED9     		bls	.L83
 917:MonoGFX/MonoGFX.c ****                 if (font == FONT_3X5) {  // –ï—Å–ª–∏ –≤—ã–±—Ä–∞–Ω —à—Ä–∏—Ñ—Ç —Ä–∞–∑–º–µ—Ä–∞ 3x5
 1476              		.loc 1 917 20
 1477 00ee 7B79     		ldrb	r3, [r7, #5]	@ zero_extendqisi2
 1478 00f0 002B     		cmp	r3, #0
 1479 00f2 1BD1     		bne	.L84
 918:MonoGFX/MonoGFX.c ****                     if (inversion) {
 1480              		.loc 1 918 24
 1481 00f4 3B79     		ldrb	r3, [r7, #4]	@ zero_extendqisi2
 1482 00f6 002B     		cmp	r3, #0
 1483 00f8 0AD0     		beq	.L85
 919:MonoGFX/MonoGFX.c ****                         MonoGFX_Print_symbol_3x5(x, y, symbol - 53297, 1);  // –¢–∞–±–ª–∏—Ü–∞ UTF-8
 1484              		.loc 1 919 25
 1485 00fa FB89     		ldrh	r3, [r7, #14]	@ movhi
 1486 00fc 03F53F53 		add	r3, r3, #12224
 1487 0100 0F33     		adds	r3, r3, #15
 1488 0102 9AB2     		uxth	r2, r3
 1489 0104 B979     		ldrb	r1, [r7, #6]	@ zero_extendqisi2
 1490 0106 F879     		ldrb	r0, [r7, #7]	@ zero_extendqisi2
 1491 0108 0123     		movs	r3, #1
 1492 010a FFF7FEFF 		bl	MonoGFX_Print_symbol_3x5
 1493 010e 09E0     		b	.L86
 1494              	.L85:
 920:MonoGFX/MonoGFX.c ****                     } else {
 921:MonoGFX/MonoGFX.c ****                         MonoGFX_Print_symbol_3x5(x, y, symbol - 53297, 0);  // –¢–∞–±–ª–∏—Ü–∞ UTF-8
 1495              		.loc 1 921 25
 1496 0110 FB89     		ldrh	r3, [r7, #14]	@ movhi
 1497 0112 03F53F53 		add	r3, r3, #12224
 1498 0116 0F33     		adds	r3, r3, #15
 1499 0118 9AB2     		uxth	r2, r3
 1500 011a B979     		ldrb	r1, [r7, #6]	@ zero_extendqisi2
 1501 011c F879     		ldrb	r0, [r7, #7]	@ zero_extendqisi2
 1502 011e 0023     		movs	r3, #0
 1503 0120 FFF7FEFF 		bl	MonoGFX_Print_symbol_3x5
 1504              	.L86:
ARM GAS  C:\Users\Oleg\AppData\Local\Temp\ccxd6WqM.s 			page 48


 922:MonoGFX/MonoGFX.c ****                     }
 923:MonoGFX/MonoGFX.c ****                     x = x + 4;
 1505              		.loc 1 923 23
 1506 0124 FB79     		ldrb	r3, [r7, #7]
 1507 0126 0433     		adds	r3, r3, #4
 1508 0128 FB71     		strb	r3, [r7, #7]
 917:MonoGFX/MonoGFX.c ****                     if (inversion) {
 1509              		.loc 1 917 20
 1510 012a F8E0     		b	.L115
 1511              	.L84:
 924:MonoGFX/MonoGFX.c ****                 } else if (font == FONT_5X7) {  // –ï—Å–ª–∏ –≤—ã–±—Ä–∞–Ω —à—Ä–∏—Ñ—Ç —Ä–∞–∑–º–µ—Ä–∞ 
 1512              		.loc 1 924 27
 1513 012c 7B79     		ldrb	r3, [r7, #5]	@ zero_extendqisi2
 1514 012e 012B     		cmp	r3, #1
 1515 0130 40F0F580 		bne	.L115
 925:MonoGFX/MonoGFX.c ****                     if (inversion) {
 1516              		.loc 1 925 24
 1517 0134 3B79     		ldrb	r3, [r7, #4]	@ zero_extendqisi2
 1518 0136 002B     		cmp	r3, #0
 1519 0138 0AD0     		beq	.L88
 926:MonoGFX/MonoGFX.c ****                         MonoGFX_Print_symbol_5x7(x, y, symbol - 53297, 1);  // –¢–∞–±–ª–∏—Ü–∞ UTF-8
 1520              		.loc 1 926 25
 1521 013a FB89     		ldrh	r3, [r7, #14]	@ movhi
 1522 013c 03F53F53 		add	r3, r3, #12224
 1523 0140 0F33     		adds	r3, r3, #15
 1524 0142 9AB2     		uxth	r2, r3
 1525 0144 B979     		ldrb	r1, [r7, #6]	@ zero_extendqisi2
 1526 0146 F879     		ldrb	r0, [r7, #7]	@ zero_extendqisi2
 1527 0148 0123     		movs	r3, #1
 1528 014a FFF7FEFF 		bl	MonoGFX_Print_symbol_5x7
 1529 014e 09E0     		b	.L89
 1530              	.L88:
 927:MonoGFX/MonoGFX.c ****                     } else {
 928:MonoGFX/MonoGFX.c ****                         MonoGFX_Print_symbol_5x7(x, y, symbol - 53297, 0);  // –¢–∞–±–ª–∏—Ü–∞ UTF-8
 1531              		.loc 1 928 25
 1532 0150 FB89     		ldrh	r3, [r7, #14]	@ movhi
 1533 0152 03F53F53 		add	r3, r3, #12224
 1534 0156 0F33     		adds	r3, r3, #15
 1535 0158 9AB2     		uxth	r2, r3
 1536 015a B979     		ldrb	r1, [r7, #6]	@ zero_extendqisi2
 1537 015c F879     		ldrb	r0, [r7, #7]	@ zero_extendqisi2
 1538 015e 0023     		movs	r3, #0
 1539 0160 FFF7FEFF 		bl	MonoGFX_Print_symbol_5x7
 1540              	.L89:
 929:MonoGFX/MonoGFX.c ****                     }
 930:MonoGFX/MonoGFX.c ****                     x = x + 6;
 1541              		.loc 1 930 23
 1542 0164 FB79     		ldrb	r3, [r7, #7]
 1543 0166 0633     		adds	r3, r3, #6
 1544 0168 FB71     		strb	r3, [r7, #7]
 917:MonoGFX/MonoGFX.c ****                     if (inversion) {
 1545              		.loc 1 917 20
 1546 016a D8E0     		b	.L115
 1547              	.L83:
 931:MonoGFX/MonoGFX.c ****                 }
 932:MonoGFX/MonoGFX.c ****             } else if (symbol == 0xD081) {
 1548              		.loc 1 932 23
ARM GAS  C:\Users\Oleg\AppData\Local\Temp\ccxd6WqM.s 			page 49


 1549 016c FB89     		ldrh	r3, [r7, #14]
 1550 016e 4DF28102 		movw	r2, #53377
 1551 0172 9342     		cmp	r3, r2
 1552 0174 2ED1     		bne	.L91
 933:MonoGFX/MonoGFX.c ****                 if (font == FONT_3X5) {  // –ï—Å–ª–∏ –≤—ã–±—Ä–∞–Ω —à—Ä–∏—Ñ—Ç —Ä–∞–∑–º–µ—Ä–∞ 3x5
 1553              		.loc 1 933 20
 1554 0176 7B79     		ldrb	r3, [r7, #5]	@ zero_extendqisi2
 1555 0178 002B     		cmp	r3, #0
 1556 017a 13D1     		bne	.L92
 934:MonoGFX/MonoGFX.c ****                     if (inversion) {
 1557              		.loc 1 934 24
 1558 017c 3B79     		ldrb	r3, [r7, #4]	@ zero_extendqisi2
 1559 017e 002B     		cmp	r3, #0
 1560 0180 06D0     		beq	.L93
 935:MonoGFX/MonoGFX.c ****                         MonoGFX_Print_symbol_3x5(x, y, 159, 1);  ////–¢–∞–±–ª–∏—Ü–∞ UTF-8. –ö–∏—Ä–∏
 1561              		.loc 1 935 25
 1562 0182 B979     		ldrb	r1, [r7, #6]	@ zero_extendqisi2
 1563 0184 F879     		ldrb	r0, [r7, #7]	@ zero_extendqisi2
 1564 0186 0123     		movs	r3, #1
 1565 0188 9F22     		movs	r2, #159
 1566 018a FFF7FEFF 		bl	MonoGFX_Print_symbol_3x5
 1567 018e 05E0     		b	.L94
 1568              	.L93:
 936:MonoGFX/MonoGFX.c ****                     } else {
 937:MonoGFX/MonoGFX.c ****                         MonoGFX_Print_symbol_3x5(x, y, 159, 0);  ////–¢–∞–±–ª–∏—Ü–∞ UTF-8. –ö–∏—Ä–∏
 1569              		.loc 1 937 25
 1570 0190 B979     		ldrb	r1, [r7, #6]	@ zero_extendqisi2
 1571 0192 F879     		ldrb	r0, [r7, #7]	@ zero_extendqisi2
 1572 0194 0023     		movs	r3, #0
 1573 0196 9F22     		movs	r2, #159
 1574 0198 FFF7FEFF 		bl	MonoGFX_Print_symbol_3x5
 1575              	.L94:
 938:MonoGFX/MonoGFX.c ****                     }
 939:MonoGFX/MonoGFX.c ****                     x = x + 4;
 1576              		.loc 1 939 23
 1577 019c FB79     		ldrb	r3, [r7, #7]
 1578 019e 0433     		adds	r3, r3, #4
 1579 01a0 FB71     		strb	r3, [r7, #7]
 1580 01a2 BDE0     		b	.L90
 1581              	.L92:
 940:MonoGFX/MonoGFX.c ****                 } else if (font == FONT_5X7) {  // –ï—Å–ª–∏ –≤—ã–±—Ä–∞–Ω —à—Ä–∏—Ñ—Ç —Ä–∞–∑–º–µ—Ä–∞ 
 1582              		.loc 1 940 27
 1583 01a4 7B79     		ldrb	r3, [r7, #5]	@ zero_extendqisi2
 1584 01a6 012B     		cmp	r3, #1
 1585 01a8 40F0BA80 		bne	.L90
 941:MonoGFX/MonoGFX.c ****                     if (inversion) {
 1586              		.loc 1 941 24
 1587 01ac 3B79     		ldrb	r3, [r7, #4]	@ zero_extendqisi2
 1588 01ae 002B     		cmp	r3, #0
 1589 01b0 06D0     		beq	.L95
 942:MonoGFX/MonoGFX.c ****                         MonoGFX_Print_symbol_5x7(x, y, 159, 1);  ////–¢–∞–±–ª–∏—Ü–∞ UTF-8. –ö–∏—Ä–∏
 1590              		.loc 1 942 25
 1591 01b2 B979     		ldrb	r1, [r7, #6]	@ zero_extendqisi2
 1592 01b4 F879     		ldrb	r0, [r7, #7]	@ zero_extendqisi2
 1593 01b6 0123     		movs	r3, #1
 1594 01b8 9F22     		movs	r2, #159
 1595 01ba FFF7FEFF 		bl	MonoGFX_Print_symbol_5x7
ARM GAS  C:\Users\Oleg\AppData\Local\Temp\ccxd6WqM.s 			page 50


 1596 01be 05E0     		b	.L96
 1597              	.L95:
 943:MonoGFX/MonoGFX.c ****                     } else {
 944:MonoGFX/MonoGFX.c ****                         MonoGFX_Print_symbol_5x7(x, y, 159, 0);  ////–¢–∞–±–ª–∏—Ü–∞ UTF-8. –ö–∏—Ä–∏
 1598              		.loc 1 944 25
 1599 01c0 B979     		ldrb	r1, [r7, #6]	@ zero_extendqisi2
 1600 01c2 F879     		ldrb	r0, [r7, #7]	@ zero_extendqisi2
 1601 01c4 0023     		movs	r3, #0
 1602 01c6 9F22     		movs	r2, #159
 1603 01c8 FFF7FEFF 		bl	MonoGFX_Print_symbol_5x7
 1604              	.L96:
 945:MonoGFX/MonoGFX.c ****                     }
 946:MonoGFX/MonoGFX.c ****                     x = x + 6;
 1605              		.loc 1 946 23
 1606 01cc FB79     		ldrb	r3, [r7, #7]
 1607 01ce 0633     		adds	r3, r3, #6
 1608 01d0 FB71     		strb	r3, [r7, #7]
 1609 01d2 A5E0     		b	.L90
 1610              	.L91:
 947:MonoGFX/MonoGFX.c ****                 }
 948:MonoGFX/MonoGFX.c ****             } else if (symbol == 0xD191) {
 1611              		.loc 1 948 23
 1612 01d4 FB89     		ldrh	r3, [r7, #14]
 1613 01d6 4DF29112 		movw	r2, #53649
 1614 01da 9342     		cmp	r3, r2
 1615 01dc 2ED1     		bne	.L97
 949:MonoGFX/MonoGFX.c ****                 if (font == FONT_3X5) {  // –ï—Å–ª–∏ –≤—ã–±—Ä–∞–Ω —à—Ä–∏—Ñ—Ç —Ä–∞–∑–º–µ—Ä–∞ 3x5
 1616              		.loc 1 949 20
 1617 01de 7B79     		ldrb	r3, [r7, #5]	@ zero_extendqisi2
 1618 01e0 002B     		cmp	r3, #0
 1619 01e2 13D1     		bne	.L98
 950:MonoGFX/MonoGFX.c ****                     if (inversion) {
 1620              		.loc 1 950 24
 1621 01e4 3B79     		ldrb	r3, [r7, #4]	@ zero_extendqisi2
 1622 01e6 002B     		cmp	r3, #0
 1623 01e8 06D0     		beq	.L99
 951:MonoGFX/MonoGFX.c ****                         MonoGFX_Print_symbol_3x5(x, y, 160, 1);  ////–¢–∞–±–ª–∏—Ü–∞ UTF-8. –ö–∏—Ä–∏
 1624              		.loc 1 951 25
 1625 01ea B979     		ldrb	r1, [r7, #6]	@ zero_extendqisi2
 1626 01ec F879     		ldrb	r0, [r7, #7]	@ zero_extendqisi2
 1627 01ee 0123     		movs	r3, #1
 1628 01f0 A022     		movs	r2, #160
 1629 01f2 FFF7FEFF 		bl	MonoGFX_Print_symbol_3x5
 1630 01f6 05E0     		b	.L100
 1631              	.L99:
 952:MonoGFX/MonoGFX.c ****                     } else {
 953:MonoGFX/MonoGFX.c ****                         MonoGFX_Print_symbol_3x5(x, y, 160, 0);  ////–¢–∞–±–ª–∏—Ü–∞ UTF-8. –ö–∏—Ä–∏
 1632              		.loc 1 953 25
 1633 01f8 B979     		ldrb	r1, [r7, #6]	@ zero_extendqisi2
 1634 01fa F879     		ldrb	r0, [r7, #7]	@ zero_extendqisi2
 1635 01fc 0023     		movs	r3, #0
 1636 01fe A022     		movs	r2, #160
 1637 0200 FFF7FEFF 		bl	MonoGFX_Print_symbol_3x5
 1638              	.L100:
 954:MonoGFX/MonoGFX.c ****                     }
 955:MonoGFX/MonoGFX.c ****                     x = x + 4;
 1639              		.loc 1 955 23
ARM GAS  C:\Users\Oleg\AppData\Local\Temp\ccxd6WqM.s 			page 51


 1640 0204 FB79     		ldrb	r3, [r7, #7]
 1641 0206 0433     		adds	r3, r3, #4
 1642 0208 FB71     		strb	r3, [r7, #7]
 1643 020a 89E0     		b	.L90
 1644              	.L98:
 956:MonoGFX/MonoGFX.c ****                 } else if (font == FONT_5X7) {  // –ï—Å–ª–∏ –≤—ã–±—Ä–∞–Ω —à—Ä–∏—Ñ—Ç —Ä–∞–∑–º–µ—Ä–∞ 
 1645              		.loc 1 956 27
 1646 020c 7B79     		ldrb	r3, [r7, #5]	@ zero_extendqisi2
 1647 020e 012B     		cmp	r3, #1
 1648 0210 40F08680 		bne	.L90
 957:MonoGFX/MonoGFX.c ****                     if (inversion) {
 1649              		.loc 1 957 24
 1650 0214 3B79     		ldrb	r3, [r7, #4]	@ zero_extendqisi2
 1651 0216 002B     		cmp	r3, #0
 1652 0218 06D0     		beq	.L101
 958:MonoGFX/MonoGFX.c ****                         MonoGFX_Print_symbol_5x7(x, y, 160, 1);  ////–¢–∞–±–ª–∏—Ü–∞ UTF-8. –ö–∏—Ä–∏
 1653              		.loc 1 958 25
 1654 021a B979     		ldrb	r1, [r7, #6]	@ zero_extendqisi2
 1655 021c F879     		ldrb	r0, [r7, #7]	@ zero_extendqisi2
 1656 021e 0123     		movs	r3, #1
 1657 0220 A022     		movs	r2, #160
 1658 0222 FFF7FEFF 		bl	MonoGFX_Print_symbol_5x7
 1659 0226 05E0     		b	.L102
 1660              	.L101:
 959:MonoGFX/MonoGFX.c ****                     } else {
 960:MonoGFX/MonoGFX.c ****                         MonoGFX_Print_symbol_5x7(x, y, 160, 0);  ////–¢–∞–±–ª–∏—Ü–∞ UTF-8. –ö–∏—Ä–∏
 1661              		.loc 1 960 25
 1662 0228 B979     		ldrb	r1, [r7, #6]	@ zero_extendqisi2
 1663 022a F879     		ldrb	r0, [r7, #7]	@ zero_extendqisi2
 1664 022c 0023     		movs	r3, #0
 1665 022e A022     		movs	r2, #160
 1666 0230 FFF7FEFF 		bl	MonoGFX_Print_symbol_5x7
 1667              	.L102:
 961:MonoGFX/MonoGFX.c ****                     }
 962:MonoGFX/MonoGFX.c ****                     x = x + 6;
 1668              		.loc 1 962 23
 1669 0234 FB79     		ldrb	r3, [r7, #7]
 1670 0236 0633     		adds	r3, r3, #6
 1671 0238 FB71     		strb	r3, [r7, #7]
 1672 023a 71E0     		b	.L90
 1673              	.L97:
 963:MonoGFX/MonoGFX.c ****                 }
 964:MonoGFX/MonoGFX.c ****             } else if (symbol == 0xC2B0) {
 1674              		.loc 1 964 23
 1675 023c FB89     		ldrh	r3, [r7, #14]
 1676 023e 4CF2B022 		movw	r2, #49840
 1677 0242 9342     		cmp	r3, r2
 1678 0244 2DD1     		bne	.L103
 965:MonoGFX/MonoGFX.c ****                 if (font == FONT_3X5) {  // –ï—Å–ª–∏ –≤—ã–±—Ä–∞–Ω —à—Ä–∏—Ñ—Ç —Ä–∞–∑–º–µ—Ä–∞ 3x5
 1679              		.loc 1 965 20
 1680 0246 7B79     		ldrb	r3, [r7, #5]	@ zero_extendqisi2
 1681 0248 002B     		cmp	r3, #0
 1682 024a 13D1     		bne	.L104
 966:MonoGFX/MonoGFX.c ****                     if (inversion) {
 1683              		.loc 1 966 24
 1684 024c 3B79     		ldrb	r3, [r7, #4]	@ zero_extendqisi2
 1685 024e 002B     		cmp	r3, #0
ARM GAS  C:\Users\Oleg\AppData\Local\Temp\ccxd6WqM.s 			page 52


 1686 0250 06D0     		beq	.L105
 967:MonoGFX/MonoGFX.c ****                         MonoGFX_Print_symbol_3x5(x, y, 161, 1);  ////–¢–∞–±–ª–∏—Ü–∞ UTF-8. Basic La
 1687              		.loc 1 967 25
 1688 0252 B979     		ldrb	r1, [r7, #6]	@ zero_extendqisi2
 1689 0254 F879     		ldrb	r0, [r7, #7]	@ zero_extendqisi2
 1690 0256 0123     		movs	r3, #1
 1691 0258 A122     		movs	r2, #161
 1692 025a FFF7FEFF 		bl	MonoGFX_Print_symbol_3x5
 1693 025e 05E0     		b	.L106
 1694              	.L105:
 968:MonoGFX/MonoGFX.c ****                     } else {
 969:MonoGFX/MonoGFX.c ****                         MonoGFX_Print_symbol_3x5(x, y, 161, 0);  ////–¢–∞–±–ª–∏—Ü–∞ UTF-8. Basic La
 1695              		.loc 1 969 25
 1696 0260 B979     		ldrb	r1, [r7, #6]	@ zero_extendqisi2
 1697 0262 F879     		ldrb	r0, [r7, #7]	@ zero_extendqisi2
 1698 0264 0023     		movs	r3, #0
 1699 0266 A122     		movs	r2, #161
 1700 0268 FFF7FEFF 		bl	MonoGFX_Print_symbol_3x5
 1701              	.L106:
 970:MonoGFX/MonoGFX.c ****                     }
 971:MonoGFX/MonoGFX.c ****                     x = x + 4;
 1702              		.loc 1 971 23
 1703 026c FB79     		ldrb	r3, [r7, #7]
 1704 026e 0433     		adds	r3, r3, #4
 1705 0270 FB71     		strb	r3, [r7, #7]
 1706 0272 55E0     		b	.L90
 1707              	.L104:
 972:MonoGFX/MonoGFX.c ****                 } else if (font == FONT_5X7) {  // –ï—Å–ª–∏ –≤—ã–±—Ä–∞–Ω —à—Ä–∏—Ñ—Ç —Ä–∞–∑–º–µ—Ä–∞ 
 1708              		.loc 1 972 27
 1709 0274 7B79     		ldrb	r3, [r7, #5]	@ zero_extendqisi2
 1710 0276 012B     		cmp	r3, #1
 1711 0278 52D1     		bne	.L90
 973:MonoGFX/MonoGFX.c ****                     if (inversion) {
 1712              		.loc 1 973 24
 1713 027a 3B79     		ldrb	r3, [r7, #4]	@ zero_extendqisi2
 1714 027c 002B     		cmp	r3, #0
 1715 027e 06D0     		beq	.L107
 974:MonoGFX/MonoGFX.c ****                         MonoGFX_Print_symbol_5x7(x, y, 161, 1);  ////–¢–∞–±–ª–∏—Ü–∞ UTF-8. Basic La
 1716              		.loc 1 974 25
 1717 0280 B979     		ldrb	r1, [r7, #6]	@ zero_extendqisi2
 1718 0282 F879     		ldrb	r0, [r7, #7]	@ zero_extendqisi2
 1719 0284 0123     		movs	r3, #1
 1720 0286 A122     		movs	r2, #161
 1721 0288 FFF7FEFF 		bl	MonoGFX_Print_symbol_5x7
 1722 028c 05E0     		b	.L108
 1723              	.L107:
 975:MonoGFX/MonoGFX.c ****                     } else {
 976:MonoGFX/MonoGFX.c ****                         MonoGFX_Print_symbol_5x7(x, y, 161, 0);  ////–¢–∞–±–ª–∏—Ü–∞ UTF-8. Basic La
 1724              		.loc 1 976 25
 1725 028e B979     		ldrb	r1, [r7, #6]	@ zero_extendqisi2
 1726 0290 F879     		ldrb	r0, [r7, #7]	@ zero_extendqisi2
 1727 0292 0023     		movs	r3, #0
 1728 0294 A122     		movs	r2, #161
 1729 0296 FFF7FEFF 		bl	MonoGFX_Print_symbol_5x7
 1730              	.L108:
 977:MonoGFX/MonoGFX.c ****                     }
 978:MonoGFX/MonoGFX.c ****                     x = x + 6;
ARM GAS  C:\Users\Oleg\AppData\Local\Temp\ccxd6WqM.s 			page 53


 1731              		.loc 1 978 23
 1732 029a FB79     		ldrb	r3, [r7, #7]
 1733 029c 0633     		adds	r3, r3, #6
 1734 029e FB71     		strb	r3, [r7, #7]
 1735 02a0 3EE0     		b	.L90
 1736              	.L103:
 979:MonoGFX/MonoGFX.c ****                 }
 980:MonoGFX/MonoGFX.c ****             }
 981:MonoGFX/MonoGFX.c **** 
 982:MonoGFX/MonoGFX.c ****             else {
 983:MonoGFX/MonoGFX.c ****                 if (font == FONT_3X5) {  // –ï—Å–ª–∏ –≤—ã–±—Ä–∞–Ω —à—Ä–∏—Ñ—Ç —Ä–∞–∑–º–µ—Ä–∞ 3x5
 1737              		.loc 1 983 20
 1738 02a2 7B79     		ldrb	r3, [r7, #5]	@ zero_extendqisi2
 1739 02a4 002B     		cmp	r3, #0
 1740 02a6 1BD1     		bne	.L109
 984:MonoGFX/MonoGFX.c ****                     if (inversion) {
 1741              		.loc 1 984 24
 1742 02a8 3B79     		ldrb	r3, [r7, #4]	@ zero_extendqisi2
 1743 02aa 002B     		cmp	r3, #0
 1744 02ac 0AD0     		beq	.L110
 985:MonoGFX/MonoGFX.c ****                         MonoGFX_Print_symbol_3x5(x, y, symbol - 53489, 1);  // –¢–∞–±–ª–∏—Ü–∞ UTF-8
 1745              		.loc 1 985 25
 1746 02ae FB89     		ldrh	r3, [r7, #14]	@ movhi
 1747 02b0 03F53C53 		add	r3, r3, #12032
 1748 02b4 0F33     		adds	r3, r3, #15
 1749 02b6 9AB2     		uxth	r2, r3
 1750 02b8 B979     		ldrb	r1, [r7, #6]	@ zero_extendqisi2
 1751 02ba F879     		ldrb	r0, [r7, #7]	@ zero_extendqisi2
 1752 02bc 0123     		movs	r3, #1
 1753 02be FFF7FEFF 		bl	MonoGFX_Print_symbol_3x5
 1754 02c2 09E0     		b	.L111
 1755              	.L110:
 986:MonoGFX/MonoGFX.c ****                     } else {
 987:MonoGFX/MonoGFX.c ****                         MonoGFX_Print_symbol_3x5(x, y, symbol - 53489, 0);  // –¢–∞–±–ª–∏—Ü–∞ UTF-8
 1756              		.loc 1 987 25
 1757 02c4 FB89     		ldrh	r3, [r7, #14]	@ movhi
 1758 02c6 03F53C53 		add	r3, r3, #12032
 1759 02ca 0F33     		adds	r3, r3, #15
 1760 02cc 9AB2     		uxth	r2, r3
 1761 02ce B979     		ldrb	r1, [r7, #6]	@ zero_extendqisi2
 1762 02d0 F879     		ldrb	r0, [r7, #7]	@ zero_extendqisi2
 1763 02d2 0023     		movs	r3, #0
 1764 02d4 FFF7FEFF 		bl	MonoGFX_Print_symbol_3x5
 1765              	.L111:
 988:MonoGFX/MonoGFX.c ****                     }
 989:MonoGFX/MonoGFX.c ****                     x = x + 4;
 1766              		.loc 1 989 23
 1767 02d8 FB79     		ldrb	r3, [r7, #7]
 1768 02da 0433     		adds	r3, r3, #4
 1769 02dc FB71     		strb	r3, [r7, #7]
 1770 02de 1FE0     		b	.L90
 1771              	.L109:
 990:MonoGFX/MonoGFX.c ****                 } else if (font == FONT_5X7) {  // –ï—Å–ª–∏ –≤—ã–±—Ä–∞–Ω —à—Ä–∏—Ñ—Ç —Ä–∞–∑–º–µ—Ä–∞ 
 1772              		.loc 1 990 27
 1773 02e0 7B79     		ldrb	r3, [r7, #5]	@ zero_extendqisi2
 1774 02e2 012B     		cmp	r3, #1
 1775 02e4 1CD1     		bne	.L90
ARM GAS  C:\Users\Oleg\AppData\Local\Temp\ccxd6WqM.s 			page 54


 991:MonoGFX/MonoGFX.c ****                     if (inversion) {
 1776              		.loc 1 991 24
 1777 02e6 3B79     		ldrb	r3, [r7, #4]	@ zero_extendqisi2
 1778 02e8 002B     		cmp	r3, #0
 1779 02ea 0AD0     		beq	.L112
 992:MonoGFX/MonoGFX.c ****                         MonoGFX_Print_symbol_5x7(x, y, symbol - 53489, 1);  // –¢–∞–±–ª–∏—Ü–∞ UTF-8
 1780              		.loc 1 992 25
 1781 02ec FB89     		ldrh	r3, [r7, #14]	@ movhi
 1782 02ee 03F53C53 		add	r3, r3, #12032
 1783 02f2 0F33     		adds	r3, r3, #15
 1784 02f4 9AB2     		uxth	r2, r3
 1785 02f6 B979     		ldrb	r1, [r7, #6]	@ zero_extendqisi2
 1786 02f8 F879     		ldrb	r0, [r7, #7]	@ zero_extendqisi2
 1787 02fa 0123     		movs	r3, #1
 1788 02fc FFF7FEFF 		bl	MonoGFX_Print_symbol_5x7
 1789 0300 09E0     		b	.L113
 1790              	.L112:
 993:MonoGFX/MonoGFX.c ****                     } else {
 994:MonoGFX/MonoGFX.c ****                         MonoGFX_Print_symbol_5x7(x, y, symbol - 53489, 0);  // –¢–∞–±–ª–∏—Ü–∞ UTF-8
 1791              		.loc 1 994 25
 1792 0302 FB89     		ldrh	r3, [r7, #14]	@ movhi
 1793 0304 03F53C53 		add	r3, r3, #12032
 1794 0308 0F33     		adds	r3, r3, #15
 1795 030a 9AB2     		uxth	r2, r3
 1796 030c B979     		ldrb	r1, [r7, #6]	@ zero_extendqisi2
 1797 030e F879     		ldrb	r0, [r7, #7]	@ zero_extendqisi2
 1798 0310 0023     		movs	r3, #0
 1799 0312 FFF7FEFF 		bl	MonoGFX_Print_symbol_5x7
 1800              	.L113:
 995:MonoGFX/MonoGFX.c ****                     }
 996:MonoGFX/MonoGFX.c ****                     x = x + 6;
 1801              		.loc 1 996 23
 1802 0316 FB79     		ldrb	r3, [r7, #7]
 1803 0318 0633     		adds	r3, r3, #6
 1804 031a FB71     		strb	r3, [r7, #7]
 1805 031c 00E0     		b	.L90
 1806              	.L115:
 917:MonoGFX/MonoGFX.c ****                     if (inversion) {
 1807              		.loc 1 917 20
 1808 031e 00BF     		nop
 1809              	.L90:
 997:MonoGFX/MonoGFX.c ****                 }
 998:MonoGFX/MonoGFX.c ****             }
 999:MonoGFX/MonoGFX.c ****             flag_block = 1;
 1810              		.loc 1 999 24
 1811 0320 0123     		movs	r3, #1
 1812 0322 FB75     		strb	r3, [r7, #23]
 1813              	.L77:
 890:MonoGFX/MonoGFX.c ****         if (MonoGFX_tx_buffer[i] < 0xC0) {  // –ê–Ω–≥–ª–∏–π—Å–∫–∏–π —Ç–µ–∫—Å—Ç –∏ —Å–∏–º–≤–æ–ª—ã. –
 1814              		.loc 1 890 53 discriminator 2
 1815 0324 3B69     		ldr	r3, [r7, #16]
 1816 0326 0133     		adds	r3, r3, #1
 1817 0328 3B61     		str	r3, [r7, #16]
 1818              	.L74:
 890:MonoGFX/MonoGFX.c ****         if (MonoGFX_tx_buffer[i] < 0xC0) {  // –ê–Ω–≥–ª–∏–π—Å–∫–∏–π —Ç–µ–∫—Å—Ç –∏ —Å–∏–º–≤–æ–ª—ã. –
 1819              		.loc 1 890 25 discriminator 1
 1820 032a B86A     		ldr	r0, [r7, #40]
ARM GAS  C:\Users\Oleg\AppData\Local\Temp\ccxd6WqM.s 			page 55


 1821 032c FFF7FEFF 		bl	strlen
 1822 0330 0246     		mov	r2, r0
 890:MonoGFX/MonoGFX.c ****         if (MonoGFX_tx_buffer[i] < 0xC0) {  // –ê–Ω–≥–ª–∏–π—Å–∫–∏–π —Ç–µ–∫—Å—Ç –∏ —Å–∏–º–≤–æ–ª—ã. –
 1823              		.loc 1 890 23 discriminator 1
 1824 0332 3B69     		ldr	r3, [r7, #16]
 890:MonoGFX/MonoGFX.c ****         if (MonoGFX_tx_buffer[i] < 0xC0) {  // –ê–Ω–≥–ª–∏–π—Å–∫–∏–π —Ç–µ–∫—Å—Ç –∏ —Å–∏–º–≤–æ–ª—ã. –
 1825              		.loc 1 890 5 discriminator 1
 1826 0334 9A42     		cmp	r2, r3
 1827 0336 3FF679AE 		bhi	.L114
 1828              	.LBE13:
1000:MonoGFX/MonoGFX.c ****         }
1001:MonoGFX/MonoGFX.c ****     }
1002:MonoGFX/MonoGFX.c **** }
 1829              		.loc 1 1002 1
 1830 033a 00BF     		nop
 1831 033c 00BF     		nop
 1832 033e 1C37     		adds	r7, r7, #28
 1833              		.cfi_def_cfa_offset 12
 1834 0340 BD46     		mov	sp, r7
 1835              		.cfi_def_cfa_register 13
 1836              		@ sp needed
 1837 0342 90BD     		pop	{r4, r7, pc}
 1838              		.cfi_endproc
 1839              	.LFE77:
 1841              		.section	.text.MonoGFX_Inversion,"ax",%progbits
 1842              		.align	1
 1843              		.global	MonoGFX_Inversion
 1844              		.syntax unified
 1845              		.thumb
 1846              		.thumb_func
 1848              	MonoGFX_Inversion:
 1849              	.LFB78:
1003:MonoGFX/MonoGFX.c **** 
1004:MonoGFX/MonoGFX.c **** /**
1005:MonoGFX/MonoGFX.c ****  ******************************************************************************
1006:MonoGFX/MonoGFX.c ****  *  @breif –§—É–Ω–∫—Ü–∏—è –∏–Ω–≤–µ—Ä—Ç–∏—Ä–æ–≤–∞–Ω–∏—è —Ü–≤–µ—Ç–∞ –ª—é–±–æ–≥–æ –º–µ—Å—Ç–∞ –≤ –±—É—Ñ
1007:MonoGFX/MonoGFX.c ****  *  @param  uint16_t x_start - –Ω–∞—á–∞–ª—å–Ω–∞—è —Ç–æ—á–∫–∞ –≤ –º–∞—Å—Å–∏–≤–µ –¥–∏—Å–ø–ª–µ—è —Å–ª–
1008:MonoGFX/MonoGFX.c ****  *  @param  uint16_t x_end - –∫–æ–Ω–µ—á–Ω–∞—è —Ç–æ—á–∫–∞ –≤ –º–∞—Å—Å–∏–≤–µ –¥–∏—Å–ø–ª–µ—è —Å–ª–µ–≤–
1009:MonoGFX/MonoGFX.c ****  ******************************************************************************
1010:MonoGFX/MonoGFX.c ****  */
1011:MonoGFX/MonoGFX.c **** 
1012:MonoGFX/MonoGFX.c **** void MonoGFX_Inversion(uint16_t x_start, uint16_t x_end) {
 1850              		.loc 1 1012 58
 1851              		.cfi_startproc
 1852              		@ args = 0, pretend = 0, frame = 8
 1853              		@ frame_needed = 1, uses_anonymous_args = 0
 1854              		@ link register save eliminated.
 1855 0000 80B4     		push	{r7}
 1856              		.cfi_def_cfa_offset 4
 1857              		.cfi_offset 7, -4
 1858 0002 83B0     		sub	sp, sp, #12
 1859              		.cfi_def_cfa_offset 16
 1860 0004 00AF     		add	r7, sp, #0
 1861              		.cfi_def_cfa_register 7
 1862 0006 0346     		mov	r3, r0
 1863 0008 0A46     		mov	r2, r1
 1864 000a FB80     		strh	r3, [r7, #6]	@ movhi
ARM GAS  C:\Users\Oleg\AppData\Local\Temp\ccxd6WqM.s 			page 56


 1865 000c 1346     		mov	r3, r2	@ movhi
 1866 000e BB80     		strh	r3, [r7, #4]	@ movhi
1013:MonoGFX/MonoGFX.c ****     for (; x_start < x_end; x_start++) {
 1867              		.loc 1 1013 5
 1868 0010 0AE0     		b	.L117
 1869              	.L118:
1014:MonoGFX/MonoGFX.c ****         MonoGFX_Frame_buffer[x_start] = ~(MonoGFX_Frame_buffer[x_start]);
 1870              		.loc 1 1014 63 discriminator 2
 1871 0012 FB88     		ldrh	r3, [r7, #6]
 1872 0014 094A     		ldr	r2, .L119
 1873 0016 D25C     		ldrb	r2, [r2, r3]	@ zero_extendqisi2
 1874              		.loc 1 1014 29 discriminator 2
 1875 0018 FB88     		ldrh	r3, [r7, #6]
 1876              		.loc 1 1014 39 discriminator 2
 1877 001a D243     		mvns	r2, r2
 1878 001c D1B2     		uxtb	r1, r2
 1879 001e 074A     		ldr	r2, .L119
 1880 0020 D154     		strb	r1, [r2, r3]
1013:MonoGFX/MonoGFX.c ****     for (; x_start < x_end; x_start++) {
 1881              		.loc 1 1013 36 discriminator 2
 1882 0022 FB88     		ldrh	r3, [r7, #6]
 1883 0024 0133     		adds	r3, r3, #1
 1884 0026 FB80     		strh	r3, [r7, #6]	@ movhi
 1885              	.L117:
1013:MonoGFX/MonoGFX.c ****     for (; x_start < x_end; x_start++) {
 1886              		.loc 1 1013 5 discriminator 1
 1887 0028 FA88     		ldrh	r2, [r7, #6]
 1888 002a BB88     		ldrh	r3, [r7, #4]
 1889 002c 9A42     		cmp	r2, r3
 1890 002e F0D3     		bcc	.L118
1015:MonoGFX/MonoGFX.c ****     }
1016:MonoGFX/MonoGFX.c **** }
 1891              		.loc 1 1016 1
 1892 0030 00BF     		nop
 1893 0032 00BF     		nop
 1894 0034 0C37     		adds	r7, r7, #12
 1895              		.cfi_def_cfa_offset 4
 1896 0036 BD46     		mov	sp, r7
 1897              		.cfi_def_cfa_register 13
 1898              		@ sp needed
 1899 0038 80BC     		pop	{r7}
 1900              		.cfi_restore 7
 1901              		.cfi_def_cfa_offset 0
 1902 003a 7047     		bx	lr
 1903              	.L120:
 1904              		.align	2
 1905              	.L119:
 1906 003c 00000000 		.word	MonoGFX_Frame_buffer
 1907              		.cfi_endproc
 1908              	.LFE78:
 1910              		.global	__aeabi_i2f
 1911              		.global	__aeabi_fcmpge
 1912              		.global	__aeabi_fcmple
 1913              		.global	__aeabi_fsub
 1914              		.global	__aeabi_fdiv
 1915              		.global	__aeabi_fmul
 1916              		.global	__aeabi_f2uiz
ARM GAS  C:\Users\Oleg\AppData\Local\Temp\ccxd6WqM.s 			page 57


 1917              		.global	__aeabi_fcmpgt
 1918              		.section	.rodata
 1919              		.align	2
 1920              	.LC0:
 1921 0000 20202043 		.ascii	"   Clipping    \000"
 1921      6C697070 
 1921      696E6720 
 1921      20202000 
 1922              		.global	__aeabi_fcmplt
 1923              		.section	.text.MonoGFX_Value_for_Plot,"ax",%progbits
 1924              		.align	1
 1925              		.global	MonoGFX_Value_for_Plot
 1926              		.syntax unified
 1927              		.thumb
 1928              		.thumb_func
 1930              	MonoGFX_Value_for_Plot:
 1931              	.LFB79:
1017:MonoGFX/MonoGFX.c **** 
1018:MonoGFX/MonoGFX.c **** /******************************** –†–ê–ë–û–¢–ê –° –ì–†–ê–§–ò–ö–û–ú ********************************
1019:MonoGFX/MonoGFX.c **** 
1020:MonoGFX/MonoGFX.c **** /**
1021:MonoGFX/MonoGFX.c ****  ******************************************************************************
1022:MonoGFX/MonoGFX.c ****  *  @breif –§—É–Ω–∫—Ü–∏—è, —Ñ–æ—Ä–º–∏—Ä—É—é—â–∞—è —Ç–æ—á–∫—É –∑–Ω–∞—á–µ–Ω–∏—è –Ω–∞ –≥—Ä–∞—Ñ–∏–∫–µ
1023:MonoGFX/MonoGFX.c ****  *  @param  int y_min - –º–∏–Ω–∏–º–∞–ª—å–Ω–æ–µ –∑–Ω–∞—á–µ–Ω–∏–µ –ø–æ –æ—Å–∏ y
1024:MonoGFX/MonoGFX.c ****  *  @param  int y_max - –º–∞–∫—Å–∏–º–∞–ª—å–Ω–æ–µ –∑–Ω–∞—á–µ–Ω–∏–µ –ø–æ –æ—Å–∏ y
1025:MonoGFX/MonoGFX.c ****  *  @param  float value - –∑–Ω–∞—á–µ–Ω–∏–µ, –∫–æ—Ç–æ—Ä–æ–µ –±—É–¥–µ–º –æ—Ç–æ–±—Ä–∞–∂–∞—Ç—å –Ω–∞ –≥—
1026:MonoGFX/MonoGFX.c ****  ******************************************************************************
1027:MonoGFX/MonoGFX.c ****  */
1028:MonoGFX/MonoGFX.c **** 
1029:MonoGFX/MonoGFX.c **** uint8_t MonoGFX_Value_for_Plot(int y_min, int y_max, float value) {
 1932              		.loc 1 1029 67
 1933              		.cfi_startproc
 1934              		@ args = 0, pretend = 0, frame = 48
 1935              		@ frame_needed = 1, uses_anonymous_args = 0
 1936 0000 90B5     		push	{r4, r7, lr}
 1937              		.cfi_def_cfa_offset 12
 1938              		.cfi_offset 4, -12
 1939              		.cfi_offset 7, -8
 1940              		.cfi_offset 14, -4
 1941 0002 8FB0     		sub	sp, sp, #60
 1942              		.cfi_def_cfa_offset 72
 1943 0004 02AF     		add	r7, sp, #8
 1944              		.cfi_def_cfa 7, 64
 1945 0006 F860     		str	r0, [r7, #12]
 1946 0008 B960     		str	r1, [r7, #8]
 1947 000a 7A60     		str	r2, [r7, #4]	@ float
1030:MonoGFX/MonoGFX.c ****     // clang-format off
1031:MonoGFX/MonoGFX.c ****     char text[20] = { 0, };
 1948              		.loc 1 1031 10
 1949 000c 0023     		movs	r3, #0
 1950 000e 7B61     		str	r3, [r7, #20]
 1951 0010 07F11803 		add	r3, r7, #24
 1952 0014 0022     		movs	r2, #0
 1953 0016 1A60     		str	r2, [r3]
 1954 0018 5A60     		str	r2, [r3, #4]
 1955 001a 9A60     		str	r2, [r3, #8]
 1956 001c DA60     		str	r2, [r3, #12]
ARM GAS  C:\Users\Oleg\AppData\Local\Temp\ccxd6WqM.s 			page 58


1032:MonoGFX/MonoGFX.c ****     // clang-format on
1033:MonoGFX/MonoGFX.c ****     uint8_t Graph_value = 0;
 1957              		.loc 1 1033 13
 1958 001e 0023     		movs	r3, #0
 1959 0020 87F82F30 		strb	r3, [r7, #47]
1034:MonoGFX/MonoGFX.c ****     if (y_max > y_min && value >= y_min && value <= y_max) {
 1960              		.loc 1 1034 8
 1961 0024 BA68     		ldr	r2, [r7, #8]
 1962 0026 FB68     		ldr	r3, [r7, #12]
 1963 0028 9A42     		cmp	r2, r3
 1964 002a 3DDD     		ble	.L122
 1965              		.loc 1 1034 32 discriminator 1
 1966 002c F868     		ldr	r0, [r7, #12]
 1967 002e FFF7FEFF 		bl	__aeabi_i2f
 1968 0032 0346     		mov	r3, r0
 1969              		.loc 1 1034 23 discriminator 1
 1970 0034 1946     		mov	r1, r3
 1971 0036 7868     		ldr	r0, [r7, #4]	@ float
 1972 0038 FFF7FEFF 		bl	__aeabi_fcmpge
 1973 003c 0346     		mov	r3, r0
 1974 003e 002B     		cmp	r3, #0
 1975 0040 32D0     		beq	.L122
 1976              		.loc 1 1034 50 discriminator 2
 1977 0042 B868     		ldr	r0, [r7, #8]
 1978 0044 FFF7FEFF 		bl	__aeabi_i2f
 1979 0048 0346     		mov	r3, r0
 1980              		.loc 1 1034 41 discriminator 2
 1981 004a 1946     		mov	r1, r3
 1982 004c 7868     		ldr	r0, [r7, #4]	@ float
 1983 004e FFF7FEFF 		bl	__aeabi_fcmple
 1984 0052 0346     		mov	r3, r0
 1985 0054 002B     		cmp	r3, #0
 1986 0056 27D0     		beq	.L122
 1987              	.LBB14:
1035:MonoGFX/MonoGFX.c ****         float y = 50.0f - (y_max + value * (-1)) * (50.0f / (y_max + y_min * (-1)));
 1988              		.loc 1 1035 34
 1989 0058 B868     		ldr	r0, [r7, #8]
 1990 005a FFF7FEFF 		bl	__aeabi_i2f
 1991 005e 0346     		mov	r3, r0
 1992 0060 7968     		ldr	r1, [r7, #4]	@ float
 1993 0062 1846     		mov	r0, r3
 1994 0064 FFF7FEFF 		bl	__aeabi_fsub
 1995 0068 0346     		mov	r3, r0
 1996 006a 1C46     		mov	r4, r3
 1997              		.loc 1 1035 68
 1998 006c BA68     		ldr	r2, [r7, #8]
 1999 006e FB68     		ldr	r3, [r7, #12]
 2000 0070 D31A     		subs	r3, r2, r3
 2001              		.loc 1 1035 59
 2002 0072 1846     		mov	r0, r3
 2003 0074 FFF7FEFF 		bl	__aeabi_i2f
 2004 0078 0346     		mov	r3, r0
 2005 007a 1946     		mov	r1, r3
 2006 007c 2D48     		ldr	r0, .L135
 2007 007e FFF7FEFF 		bl	__aeabi_fdiv
 2008 0082 0346     		mov	r3, r0
 2009              		.loc 1 1035 50
ARM GAS  C:\Users\Oleg\AppData\Local\Temp\ccxd6WqM.s 			page 59


 2010 0084 1946     		mov	r1, r3
 2011 0086 2046     		mov	r0, r4
 2012 0088 FFF7FEFF 		bl	__aeabi_fmul
 2013 008c 0346     		mov	r3, r0
 2014              		.loc 1 1035 15
 2015 008e 1946     		mov	r1, r3
 2016 0090 2848     		ldr	r0, .L135
 2017 0092 FFF7FEFF 		bl	__aeabi_fsub
 2018 0096 0346     		mov	r3, r0
 2019 0098 BB62     		str	r3, [r7, #40]	@ float
1036:MonoGFX/MonoGFX.c ****         Graph_value = (uint8_t)y;
 2020              		.loc 1 1036 21
 2021 009a B86A     		ldr	r0, [r7, #40]	@ float
 2022 009c FFF7FEFF 		bl	__aeabi_f2uiz
 2023 00a0 0346     		mov	r3, r0
 2024 00a2 87F82F30 		strb	r3, [r7, #47]
 2025              	.LBE14:
1034:MonoGFX/MonoGFX.c ****     if (y_max > y_min && value >= y_min && value <= y_max) {
 2026              		.loc 1 1034 60
 2027 00a6 3EE0     		b	.L125
 2028              	.L122:
1037:MonoGFX/MonoGFX.c ****     } else if (value > y_max) {
 2029              		.loc 1 1037 22
 2030 00a8 B868     		ldr	r0, [r7, #8]
 2031 00aa FFF7FEFF 		bl	__aeabi_i2f
 2032 00ae 0346     		mov	r3, r0
 2033              		.loc 1 1037 15
 2034 00b0 1946     		mov	r1, r3
 2035 00b2 7868     		ldr	r0, [r7, #4]	@ float
 2036 00b4 FFF7FEFF 		bl	__aeabi_fcmpgt
 2037 00b8 0346     		mov	r3, r0
 2038 00ba 002B     		cmp	r3, #0
 2039 00bc 14D0     		beq	.L134
1038:MonoGFX/MonoGFX.c ****         Graph_value = 50;
 2040              		.loc 1 1038 21
 2041 00be 3223     		movs	r3, #50
 2042 00c0 87F82F30 		strb	r3, [r7, #47]
1039:MonoGFX/MonoGFX.c ****         sprintf(text, "   Clipping    ");
 2043              		.loc 1 1039 9
 2044 00c4 07F11403 		add	r3, r7, #20
 2045 00c8 1B49     		ldr	r1, .L135+4
 2046 00ca 1846     		mov	r0, r3
 2047 00cc FFF7FEFF 		bl	sprintf
1040:MonoGFX/MonoGFX.c ****         MonoGFX_Decode_UTF8(37, 26, 1, 0, text);
 2048              		.loc 1 1040 9
 2049 00d0 07F11403 		add	r3, r7, #20
 2050 00d4 0093     		str	r3, [sp]
 2051 00d6 0023     		movs	r3, #0
 2052 00d8 0122     		movs	r2, #1
 2053 00da 1A21     		movs	r1, #26
 2054 00dc 2520     		movs	r0, #37
 2055 00de FFF7FEFF 		bl	MonoGFX_Decode_UTF8
1041:MonoGFX/MonoGFX.c ****         MonoGFX_Update();
 2056              		.loc 1 1041 9
 2057 00e2 FFF7FEFF 		bl	MonoGFX_Update
 2058 00e6 1EE0     		b	.L125
 2059              	.L134:
ARM GAS  C:\Users\Oleg\AppData\Local\Temp\ccxd6WqM.s 			page 60


1042:MonoGFX/MonoGFX.c ****     } else if (value < y_min) {
 2060              		.loc 1 1042 22
 2061 00e8 F868     		ldr	r0, [r7, #12]
 2062 00ea FFF7FEFF 		bl	__aeabi_i2f
 2063 00ee 0346     		mov	r3, r0
 2064              		.loc 1 1042 15
 2065 00f0 1946     		mov	r1, r3
 2066 00f2 7868     		ldr	r0, [r7, #4]	@ float
 2067 00f4 FFF7FEFF 		bl	__aeabi_fcmplt
 2068 00f8 0346     		mov	r3, r0
 2069 00fa 002B     		cmp	r3, #0
 2070 00fc 13D0     		beq	.L125
1043:MonoGFX/MonoGFX.c ****         Graph_value = 0;
 2071              		.loc 1 1043 21
 2072 00fe 0023     		movs	r3, #0
 2073 0100 87F82F30 		strb	r3, [r7, #47]
1044:MonoGFX/MonoGFX.c ****         sprintf(text, "   Clipping    ");
 2074              		.loc 1 1044 9
 2075 0104 07F11403 		add	r3, r7, #20
 2076 0108 0B49     		ldr	r1, .L135+4
 2077 010a 1846     		mov	r0, r3
 2078 010c FFF7FEFF 		bl	sprintf
1045:MonoGFX/MonoGFX.c ****         MonoGFX_Decode_UTF8(37, 26, 1, 0, text);
 2079              		.loc 1 1045 9
 2080 0110 07F11403 		add	r3, r7, #20
 2081 0114 0093     		str	r3, [sp]
 2082 0116 0023     		movs	r3, #0
 2083 0118 0122     		movs	r2, #1
 2084 011a 1A21     		movs	r1, #26
 2085 011c 2520     		movs	r0, #37
 2086 011e FFF7FEFF 		bl	MonoGFX_Decode_UTF8
1046:MonoGFX/MonoGFX.c ****         MonoGFX_Update();
 2087              		.loc 1 1046 9
 2088 0122 FFF7FEFF 		bl	MonoGFX_Update
 2089              	.L125:
1047:MonoGFX/MonoGFX.c ****     }
1048:MonoGFX/MonoGFX.c ****     return Graph_value;
 2090              		.loc 1 1048 12
 2091 0126 97F82F30 		ldrb	r3, [r7, #47]	@ zero_extendqisi2
1049:MonoGFX/MonoGFX.c **** }
 2092              		.loc 1 1049 1
 2093 012a 1846     		mov	r0, r3
 2094 012c 3437     		adds	r7, r7, #52
 2095              		.cfi_def_cfa_offset 12
 2096 012e BD46     		mov	sp, r7
 2097              		.cfi_def_cfa_register 13
 2098              		@ sp needed
 2099 0130 90BD     		pop	{r4, r7, pc}
 2100              	.L136:
 2101 0132 00BF     		.align	2
 2102              	.L135:
 2103 0134 00004842 		.word	1112014848
 2104 0138 00000000 		.word	.LC0
 2105              		.cfi_endproc
 2106              	.LFE79:
 2108              		.section	.text.MonoGFX_Fill_the_array_Plot,"ax",%progbits
 2109              		.align	1
ARM GAS  C:\Users\Oleg\AppData\Local\Temp\ccxd6WqM.s 			page 61


 2110              		.global	MonoGFX_Fill_the_array_Plot
 2111              		.syntax unified
 2112              		.thumb
 2113              		.thumb_func
 2115              	MonoGFX_Fill_the_array_Plot:
 2116              	.LFB80:
1050:MonoGFX/MonoGFX.c **** 
1051:MonoGFX/MonoGFX.c **** /**
1052:MonoGFX/MonoGFX.c ****  ******************************************************************************
1053:MonoGFX/MonoGFX.c ****  *  @breif –§—É–Ω–∫—Ü–∏—è, –∑–∞–ø–æ–ª–Ω—è—é—â–∞—è –º–∞—Å—Å–∏–≤ –∑–Ω–∞—á–µ–Ω–∏—è–º–∏, —á—Ç–æ–± –æ—Ç—
1054:MonoGFX/MonoGFX.c ****  *  @param  uint8_t *counter - —Å—á–µ—Ç—á–∏–∫ –∑–Ω–∞—á–µ–Ω–∏–π
1055:MonoGFX/MonoGFX.c ****  *  @param  uint8_t *array - –º–∞—Å—Å–∏–≤, –∫—É–¥–∞ –±—É–¥–µ–º –∑–∞–∫–∏–¥—ã–≤–∞—Ç—å –∑–Ω–∞—á–µ–Ω–∏—
1056:MonoGFX/MonoGFX.c ****  *  @param  uint8_t size_array - —Ä–∞–∑–º–µ—Ä –º–∞—Å—Å–∏–≤–∞, –∫—É–¥–∞ –±—É–¥–µ–º –∑–∞–∫–∏–¥—ã–≤–∞—
1057:MonoGFX/MonoGFX.c ****  *  @param uint8_t value - –ø–æ–¥–≥–æ—Ç–æ–≤–ª–µ–Ω–Ω–æ–µ –∑–Ω–∞—á–µ–Ω–∏–µ –¥–ª—è –≥—Ä–∞—Ñ–∏–∫–∞(–ø–æ
1058:MonoGFX/MonoGFX.c ****  ******************************************************************************
1059:MonoGFX/MonoGFX.c ****  */
1060:MonoGFX/MonoGFX.c **** 
1061:MonoGFX/MonoGFX.c **** void MonoGFX_Fill_the_array_Plot(uint8_t *counter, uint8_t *array, uint8_t size_array, uint8_t valu
 2117              		.loc 1 1061 103
 2118              		.cfi_startproc
 2119              		@ args = 0, pretend = 0, frame = 24
 2120              		@ frame_needed = 1, uses_anonymous_args = 0
 2121              		@ link register save eliminated.
 2122 0000 80B4     		push	{r7}
 2123              		.cfi_def_cfa_offset 4
 2124              		.cfi_offset 7, -4
 2125 0002 87B0     		sub	sp, sp, #28
 2126              		.cfi_def_cfa_offset 32
 2127 0004 00AF     		add	r7, sp, #0
 2128              		.cfi_def_cfa_register 7
 2129 0006 F860     		str	r0, [r7, #12]
 2130 0008 B960     		str	r1, [r7, #8]
 2131 000a 1146     		mov	r1, r2
 2132 000c 1A46     		mov	r2, r3
 2133 000e 0B46     		mov	r3, r1
 2134 0010 FB71     		strb	r3, [r7, #7]
 2135 0012 1346     		mov	r3, r2
 2136 0014 BB71     		strb	r3, [r7, #6]
1062:MonoGFX/MonoGFX.c ****     if (*counter == 0) {
 2137              		.loc 1 1062 9
 2138 0016 FB68     		ldr	r3, [r7, #12]
 2139 0018 1B78     		ldrb	r3, [r3]	@ zero_extendqisi2
 2140              		.loc 1 1062 8
 2141 001a 002B     		cmp	r3, #0
 2142 001c 02D1     		bne	.L138
1063:MonoGFX/MonoGFX.c ****         array[0] = value;
 2143              		.loc 1 1063 18
 2144 001e BB68     		ldr	r3, [r7, #8]
 2145 0020 BA79     		ldrb	r2, [r7, #6]
 2146 0022 1A70     		strb	r2, [r3]
 2147              	.L138:
1064:MonoGFX/MonoGFX.c ****     }
1065:MonoGFX/MonoGFX.c **** 
1066:MonoGFX/MonoGFX.c ****     if (*counter) {
 2148              		.loc 1 1066 9
 2149 0024 FB68     		ldr	r3, [r7, #12]
 2150 0026 1B78     		ldrb	r3, [r3]	@ zero_extendqisi2
ARM GAS  C:\Users\Oleg\AppData\Local\Temp\ccxd6WqM.s 			page 62


 2151              		.loc 1 1066 8
 2152 0028 002B     		cmp	r3, #0
 2153 002a 4DD0     		beq	.L139
1067:MonoGFX/MonoGFX.c ****         if (*counter <= size_array - 1) {
 2154              		.loc 1 1067 13
 2155 002c FB68     		ldr	r3, [r7, #12]
 2156 002e 1B78     		ldrb	r3, [r3]	@ zero_extendqisi2
 2157              		.loc 1 1067 12
 2158 0030 FA79     		ldrb	r2, [r7, #7]	@ zero_extendqisi2
 2159 0032 9A42     		cmp	r2, r3
 2160 0034 28D9     		bls	.L140
 2161              	.LBB15:
1068:MonoGFX/MonoGFX.c ****             for (int i = 0; i <= *counter; i++) {
 2162              		.loc 1 1068 22
 2163 0036 0023     		movs	r3, #0
 2164 0038 7B61     		str	r3, [r7, #20]
 2165              		.loc 1 1068 13
 2166 003a 1EE0     		b	.L141
 2167              	.L144:
1069:MonoGFX/MonoGFX.c ****                 if (i == *counter) {
 2168              		.loc 1 1069 26
 2169 003c FB68     		ldr	r3, [r7, #12]
 2170 003e 1B78     		ldrb	r3, [r3]	@ zero_extendqisi2
 2171 0040 1A46     		mov	r2, r3
 2172              		.loc 1 1069 20
 2173 0042 7B69     		ldr	r3, [r7, #20]
 2174 0044 9342     		cmp	r3, r2
 2175 0046 03D1     		bne	.L142
1070:MonoGFX/MonoGFX.c ****                     array[0] = value;
 2176              		.loc 1 1070 30
 2177 0048 BB68     		ldr	r3, [r7, #8]
 2178 004a BA79     		ldrb	r2, [r7, #6]
 2179 004c 1A70     		strb	r2, [r3]
 2180 004e 11E0     		b	.L143
 2181              	.L142:
1071:MonoGFX/MonoGFX.c ****                 } else {
1072:MonoGFX/MonoGFX.c ****                     array[*counter - i] = array[*counter - i - 1];
 2182              		.loc 1 1072 49
 2183 0050 FB68     		ldr	r3, [r7, #12]
 2184 0052 1B78     		ldrb	r3, [r3]	@ zero_extendqisi2
 2185 0054 1A46     		mov	r2, r3
 2186              		.loc 1 1072 58
 2187 0056 7B69     		ldr	r3, [r7, #20]
 2188 0058 D31A     		subs	r3, r2, r3
 2189              		.loc 1 1072 48
 2190 005a 013B     		subs	r3, r3, #1
 2191 005c BA68     		ldr	r2, [r7, #8]
 2192 005e 1A44     		add	r2, r2, r3
 2193              		.loc 1 1072 27
 2194 0060 FB68     		ldr	r3, [r7, #12]
 2195 0062 1B78     		ldrb	r3, [r3]	@ zero_extendqisi2
 2196 0064 1946     		mov	r1, r3
 2197              		.loc 1 1072 36
 2198 0066 7B69     		ldr	r3, [r7, #20]
 2199 0068 CB1A     		subs	r3, r1, r3
 2200 006a 1946     		mov	r1, r3
 2201              		.loc 1 1072 26
ARM GAS  C:\Users\Oleg\AppData\Local\Temp\ccxd6WqM.s 			page 63


 2202 006c BB68     		ldr	r3, [r7, #8]
 2203 006e 0B44     		add	r3, r3, r1
 2204              		.loc 1 1072 48
 2205 0070 1278     		ldrb	r2, [r2]	@ zero_extendqisi2
 2206              		.loc 1 1072 41
 2207 0072 1A70     		strb	r2, [r3]
 2208              	.L143:
1068:MonoGFX/MonoGFX.c ****                 if (i == *counter) {
 2209              		.loc 1 1068 45 discriminator 2
 2210 0074 7B69     		ldr	r3, [r7, #20]
 2211 0076 0133     		adds	r3, r3, #1
 2212 0078 7B61     		str	r3, [r7, #20]
 2213              	.L141:
1068:MonoGFX/MonoGFX.c ****                 if (i == *counter) {
 2214              		.loc 1 1068 34 discriminator 1
 2215 007a FB68     		ldr	r3, [r7, #12]
 2216 007c 1B78     		ldrb	r3, [r3]	@ zero_extendqisi2
 2217 007e 1A46     		mov	r2, r3
1068:MonoGFX/MonoGFX.c ****                 if (i == *counter) {
 2218              		.loc 1 1068 13 discriminator 1
 2219 0080 7B69     		ldr	r3, [r7, #20]
 2220 0082 9342     		cmp	r3, r2
 2221 0084 DADD     		ble	.L144
 2222 0086 1FE0     		b	.L139
 2223              	.L140:
 2224              	.LBE15:
1073:MonoGFX/MonoGFX.c ****                 }
1074:MonoGFX/MonoGFX.c ****             }
1075:MonoGFX/MonoGFX.c ****         } else if (*counter > size_array - 1) {
 2225              		.loc 1 1075 20
 2226 0088 FB68     		ldr	r3, [r7, #12]
 2227 008a 1B78     		ldrb	r3, [r3]	@ zero_extendqisi2
 2228              		.loc 1 1075 19
 2229 008c FA79     		ldrb	r2, [r7, #7]	@ zero_extendqisi2
 2230 008e 9A42     		cmp	r2, r3
 2231 0090 1AD8     		bhi	.L139
 2232              	.LBB16:
1076:MonoGFX/MonoGFX.c ****             for (int i = size_array - 1; i >= 0; i--) {
 2233              		.loc 1 1076 37
 2234 0092 FB79     		ldrb	r3, [r7, #7]	@ zero_extendqisi2
 2235              		.loc 1 1076 22
 2236 0094 013B     		subs	r3, r3, #1
 2237 0096 3B61     		str	r3, [r7, #16]
 2238              		.loc 1 1076 13
 2239 0098 13E0     		b	.L145
 2240              	.L147:
1077:MonoGFX/MonoGFX.c ****                 array[i] = array[i - 1];
 2241              		.loc 1 1077 33
 2242 009a 3B69     		ldr	r3, [r7, #16]
 2243 009c 013B     		subs	r3, r3, #1
 2244 009e BA68     		ldr	r2, [r7, #8]
 2245 00a0 1A44     		add	r2, r2, r3
 2246              		.loc 1 1077 22
 2247 00a2 3B69     		ldr	r3, [r7, #16]
 2248 00a4 B968     		ldr	r1, [r7, #8]
 2249 00a6 0B44     		add	r3, r3, r1
 2250              		.loc 1 1077 33
ARM GAS  C:\Users\Oleg\AppData\Local\Temp\ccxd6WqM.s 			page 64


 2251 00a8 1278     		ldrb	r2, [r2]	@ zero_extendqisi2
 2252              		.loc 1 1077 26
 2253 00aa 1A70     		strb	r2, [r3]
1078:MonoGFX/MonoGFX.c ****                 if (i == 0) {
 2254              		.loc 1 1078 20
 2255 00ac 3B69     		ldr	r3, [r7, #16]
 2256 00ae 002B     		cmp	r3, #0
 2257 00b0 04D1     		bne	.L146
1079:MonoGFX/MonoGFX.c ****                     array[i] = value;
 2258              		.loc 1 1079 26
 2259 00b2 3B69     		ldr	r3, [r7, #16]
 2260 00b4 BA68     		ldr	r2, [r7, #8]
 2261 00b6 1344     		add	r3, r3, r2
 2262              		.loc 1 1079 30
 2263 00b8 BA79     		ldrb	r2, [r7, #6]
 2264 00ba 1A70     		strb	r2, [r3]
 2265              	.L146:
1076:MonoGFX/MonoGFX.c ****                 array[i] = array[i - 1];
 2266              		.loc 1 1076 51 discriminator 2
 2267 00bc 3B69     		ldr	r3, [r7, #16]
 2268 00be 013B     		subs	r3, r3, #1
 2269 00c0 3B61     		str	r3, [r7, #16]
 2270              	.L145:
1076:MonoGFX/MonoGFX.c ****                 array[i] = array[i - 1];
 2271              		.loc 1 1076 13 discriminator 1
 2272 00c2 3B69     		ldr	r3, [r7, #16]
 2273 00c4 002B     		cmp	r3, #0
 2274 00c6 E8DA     		bge	.L147
 2275              	.L139:
 2276              	.LBE16:
1080:MonoGFX/MonoGFX.c ****                 }
1081:MonoGFX/MonoGFX.c ****             }
1082:MonoGFX/MonoGFX.c ****         }
1083:MonoGFX/MonoGFX.c ****     }
1084:MonoGFX/MonoGFX.c ****     (*counter)++;
 2277              		.loc 1 1084 6
 2278 00c8 FB68     		ldr	r3, [r7, #12]
 2279 00ca 1B78     		ldrb	r3, [r3]	@ zero_extendqisi2
 2280              		.loc 1 1084 15
 2281 00cc 0133     		adds	r3, r3, #1
 2282 00ce DAB2     		uxtb	r2, r3
 2283 00d0 FB68     		ldr	r3, [r7, #12]
 2284 00d2 1A70     		strb	r2, [r3]
1085:MonoGFX/MonoGFX.c ****     if (*counter == 250) {
 2285              		.loc 1 1085 9
 2286 00d4 FB68     		ldr	r3, [r7, #12]
 2287 00d6 1B78     		ldrb	r3, [r3]	@ zero_extendqisi2
 2288              		.loc 1 1085 8
 2289 00d8 FA2B     		cmp	r3, #250
 2290 00da 02D1     		bne	.L149
1086:MonoGFX/MonoGFX.c ****         *counter = 128;  // –ó–∞—â–∏—Ç–∞ –æ—Ç –ø–µ—Ä–µ–ø–æ–ª–Ω–µ–Ω–∏—è, –∏–Ω–∞—á–µ –≥—Ä–∞—Ñ–∏–∫ –±—
 2291              		.loc 1 1086 18
 2292 00dc FB68     		ldr	r3, [r7, #12]
 2293 00de 8022     		movs	r2, #128
 2294 00e0 1A70     		strb	r2, [r3]
 2295              	.L149:
1087:MonoGFX/MonoGFX.c ****     }
ARM GAS  C:\Users\Oleg\AppData\Local\Temp\ccxd6WqM.s 			page 65


1088:MonoGFX/MonoGFX.c **** }
 2296              		.loc 1 1088 1
 2297 00e2 00BF     		nop
 2298 00e4 1C37     		adds	r7, r7, #28
 2299              		.cfi_def_cfa_offset 4
 2300 00e6 BD46     		mov	sp, r7
 2301              		.cfi_def_cfa_register 13
 2302              		@ sp needed
 2303 00e8 80BC     		pop	{r7}
 2304              		.cfi_restore 7
 2305              		.cfi_def_cfa_offset 0
 2306 00ea 7047     		bx	lr
 2307              		.cfi_endproc
 2308              	.LFE80:
 2310              		.section	.rodata
 2311              		.align	2
 2312              	.LC1:
 2313 0010 25342E31 		.ascii	"%4.1d\000"
 2313      6400
 2314 0016 0000     		.align	2
 2315              	.LC2:
 2316 0018 25322E31 		.ascii	"%2.1dc\320\265\320\272.\000"
 2316      6463D0B5 
 2316      D0BA2E00 
 2317              		.align	2
 2318              	.LC3:
 2319 0024 25322E31 		.ascii	"%2.1d\320\274\320\270\320\275.\000"
 2319      64D0BCD0 
 2319      B8D0BD2E 
 2319      00
 2320 0031 000000   		.align	2
 2321              	.LC4:
 2322 0034 25322E31 		.ascii	"%2.1d\321\207\320\260\321\201.\000"
 2322      64D187D0 
 2322      B0D1812E 
 2322      00
 2323              		.section	.text.MonoGFX_Generate_a_Graph,"ax",%progbits
 2324              		.align	1
 2325              		.global	MonoGFX_Generate_a_Graph
 2326              		.syntax unified
 2327              		.thumb
 2328              		.thumb_func
 2330              	MonoGFX_Generate_a_Graph:
 2331              	.LFB81:
1089:MonoGFX/MonoGFX.c **** 
1090:MonoGFX/MonoGFX.c **** /**
1091:MonoGFX/MonoGFX.c ****  ******************************************************************************
1092:MonoGFX/MonoGFX.c ****  *  @breif –§—É–Ω–∫—Ü–∏—è, —Ñ–æ—Ä–º–∏—Ä—É—é—â–∞—è –≤–µ—Å—å –≥—Ä–∞—Ñ–∏–∫, –∫–æ—Ç–æ—Ä—ã–π –±—É–¥–µ—Ç 
1093:MonoGFX/MonoGFX.c ****  *  @param uint8_t *counter - —Å—á–µ—Ç—á–∏–∫ –∑–Ω–∞—á–µ–Ω–∏–π
1094:MonoGFX/MonoGFX.c ****  *  @param uint8_t *array - –º–∞—Å—Å–∏–≤, –∫—É–¥–∞ –º—ã –∑–∞–∫–∏–¥—ã–≤–∞–ª–∏ –∑–Ω–∞—á–µ–Ω–∏—è –¥–ª—
1095:MonoGFX/MonoGFX.c ****  *  @param uint8_t size_array - —Ä–∞–∑–º–µ—Ä –º–∞—Å—Å–∏–≤–∞, –∫—É–¥–∞ –º—ã –∑–∞–∫–∏–¥—ã–≤–∞–ª–∏ –∑–
1096:MonoGFX/MonoGFX.c ****  *  @param int y_min - –º–∏–Ω–∏–º–∞–ª—å–Ω–æ–µ –∑–Ω–∞—á–µ–Ω–∏–µ –ø–æ –æ—Å–∏ y
1097:MonoGFX/MonoGFX.c ****  *  @param int y_max - –º–∞–∫—Å–∏–º–∞–ª—å–Ω–æ–µ –∑–Ω–∞—á–µ–Ω–∏–µ –ø–æ –æ—Å–∏ y
1098:MonoGFX/MonoGFX.c ****  *  @param uint8_t x_grid_time - —Ä–∞–∑–º–µ—Ä –∫–ª–µ—Ç–∫–∏ –ø–æ x(–ù–∞–ø—Ä–∏–º–µ—Ä, –≥—Ä–∞—Ñ–∏–∫ –æ
1099:MonoGFX/MonoGFX.c ****  *  @param uint8_t time_interval - –∏–Ω—Ç–µ—Ä–≤–∞–ª –≤—Ä–µ–º–µ–Ω–∏. 0 - —Å–µ–∫., 1 - –º–∏–Ω., 2 = —
1100:MonoGFX/MonoGFX.c ****  *  @param bool grid - –°–µ—Ç–∫–∞ –≥—Ä–∞—Ñ—Ñ–∏–∫–∞. –≤–∫–ª = 1. –≤—ã–∫–ª = 0.
1101:MonoGFX/MonoGFX.c ****  ******************************************************************************
ARM GAS  C:\Users\Oleg\AppData\Local\Temp\ccxd6WqM.s 			page 66


1102:MonoGFX/MonoGFX.c ****  */
1103:MonoGFX/MonoGFX.c **** 
1104:MonoGFX/MonoGFX.c **** void MonoGFX_Generate_a_Graph(uint8_t *counter, uint8_t *array, uint8_t size_array, int y_min, int 
 2332              		.loc 1 1104 162
 2333              		.cfi_startproc
 2334              		@ args = 16, pretend = 0, frame = 64
 2335              		@ frame_needed = 1, uses_anonymous_args = 0
 2336 0000 90B5     		push	{r4, r7, lr}
 2337              		.cfi_def_cfa_offset 12
 2338              		.cfi_offset 4, -12
 2339              		.cfi_offset 7, -8
 2340              		.cfi_offset 14, -4
 2341 0002 93B0     		sub	sp, sp, #76
 2342              		.cfi_def_cfa_offset 88
 2343 0004 02AF     		add	r7, sp, #8
 2344              		.cfi_def_cfa 7, 80
 2345 0006 F860     		str	r0, [r7, #12]
 2346 0008 B960     		str	r1, [r7, #8]
 2347 000a 3B60     		str	r3, [r7]
 2348 000c 1346     		mov	r3, r2
 2349 000e FB71     		strb	r3, [r7, #7]
1105:MonoGFX/MonoGFX.c ****     int y_minimum = y_min;
 2350              		.loc 1 1105 9
 2351 0010 3B68     		ldr	r3, [r7]
 2352 0012 FB63     		str	r3, [r7, #60]
1106:MonoGFX/MonoGFX.c ****     int y_maximum = y_max;
 2353              		.loc 1 1106 9
 2354 0014 3B6D     		ldr	r3, [r7, #80]
 2355 0016 BB63     		str	r3, [r7, #56]
1107:MonoGFX/MonoGFX.c ****     if (y_min < 0) {
 2356              		.loc 1 1107 8
 2357 0018 3B68     		ldr	r3, [r7]
 2358 001a 002B     		cmp	r3, #0
 2359 001c 02DA     		bge	.L151
1108:MonoGFX/MonoGFX.c ****         y_minimum = y_minimum * (-1);
 2360              		.loc 1 1108 19
 2361 001e FB6B     		ldr	r3, [r7, #60]
 2362 0020 5B42     		rsbs	r3, r3, #0
 2363 0022 FB63     		str	r3, [r7, #60]
 2364              	.L151:
1109:MonoGFX/MonoGFX.c ****     }
1110:MonoGFX/MonoGFX.c ****     if (y_max < 0) {
 2365              		.loc 1 1110 8
 2366 0024 3B6D     		ldr	r3, [r7, #80]
 2367 0026 002B     		cmp	r3, #0
 2368 0028 02DA     		bge	.L152
1111:MonoGFX/MonoGFX.c ****         y_maximum = y_maximum * (-1);
 2369              		.loc 1 1111 19
 2370 002a BB6B     		ldr	r3, [r7, #56]
 2371 002c 5B42     		rsbs	r3, r3, #0
 2372 002e BB63     		str	r3, [r7, #56]
 2373              	.L152:
1112:MonoGFX/MonoGFX.c ****     }
1113:MonoGFX/MonoGFX.c ****     int val_del = (y_minimum + y_maximum) / 5;
 2374              		.loc 1 1113 30
 2375 0030 FA6B     		ldr	r2, [r7, #60]
 2376 0032 BB6B     		ldr	r3, [r7, #56]
ARM GAS  C:\Users\Oleg\AppData\Local\Temp\ccxd6WqM.s 			page 67


 2377 0034 1344     		add	r3, r3, r2
 2378              		.loc 1 1113 9
 2379 0036 C44A     		ldr	r2, .L179
 2380 0038 82FB0312 		smull	r1, r2, r2, r3
 2381 003c 5210     		asrs	r2, r2, #1
 2382 003e DB17     		asrs	r3, r3, #31
 2383 0040 D31A     		subs	r3, r2, r3
 2384 0042 7B62     		str	r3, [r7, #36]
1114:MonoGFX/MonoGFX.c **** 
1115:MonoGFX/MonoGFX.c ****     // clang-format off
1116:MonoGFX/MonoGFX.c ****     char text[20] = { 0, };
 2385              		.loc 1 1116 10
 2386 0044 0023     		movs	r3, #0
 2387 0046 3B61     		str	r3, [r7, #16]
 2388 0048 07F11403 		add	r3, r7, #20
 2389 004c 0022     		movs	r2, #0
 2390 004e 1A60     		str	r2, [r3]
 2391 0050 5A60     		str	r2, [r3, #4]
 2392 0052 9A60     		str	r2, [r3, #8]
 2393 0054 DA60     		str	r2, [r3, #12]
1117:MonoGFX/MonoGFX.c ****     // clang-format on
1118:MonoGFX/MonoGFX.c **** 
1119:MonoGFX/MonoGFX.c ****     MonoGFX_Clean_Frame_buffer();
 2394              		.loc 1 1119 5
 2395 0056 FFF7FEFF 		bl	MonoGFX_Clean_Frame_buffer
1120:MonoGFX/MonoGFX.c ****     sprintf(text, "%4.1d", y_min);
 2396              		.loc 1 1120 5
 2397 005a 07F11003 		add	r3, r7, #16
 2398 005e 3A68     		ldr	r2, [r7]
 2399 0060 BA49     		ldr	r1, .L179+4
 2400 0062 1846     		mov	r0, r3
 2401 0064 FFF7FEFF 		bl	sprintf
1121:MonoGFX/MonoGFX.c ****     MonoGFX_Decode_UTF8(8, 48, 0, 0, text);
 2402              		.loc 1 1121 5
 2403 0068 07F11003 		add	r3, r7, #16
 2404 006c 0093     		str	r3, [sp]
 2405 006e 0023     		movs	r3, #0
 2406 0070 0022     		movs	r2, #0
 2407 0072 3021     		movs	r1, #48
 2408 0074 0820     		movs	r0, #8
 2409 0076 FFF7FEFF 		bl	MonoGFX_Decode_UTF8
1122:MonoGFX/MonoGFX.c ****     sprintf(text, "%4.1d", (y_min + val_del));
 2410              		.loc 1 1122 5
 2411 007a 3A68     		ldr	r2, [r7]
 2412 007c 7B6A     		ldr	r3, [r7, #36]
 2413 007e 1A44     		add	r2, r2, r3
 2414 0080 07F11003 		add	r3, r7, #16
 2415 0084 B149     		ldr	r1, .L179+4
 2416 0086 1846     		mov	r0, r3
 2417 0088 FFF7FEFF 		bl	sprintf
1123:MonoGFX/MonoGFX.c ****     MonoGFX_Decode_UTF8(8, 38, 0, 0, text);
 2418              		.loc 1 1123 5
 2419 008c 07F11003 		add	r3, r7, #16
 2420 0090 0093     		str	r3, [sp]
 2421 0092 0023     		movs	r3, #0
 2422 0094 0022     		movs	r2, #0
 2423 0096 2621     		movs	r1, #38
ARM GAS  C:\Users\Oleg\AppData\Local\Temp\ccxd6WqM.s 			page 68


 2424 0098 0820     		movs	r0, #8
 2425 009a FFF7FEFF 		bl	MonoGFX_Decode_UTF8
1124:MonoGFX/MonoGFX.c ****     sprintf(text, "%4.1d", (y_min + val_del * 2));
 2426              		.loc 1 1124 45
 2427 009e 7B6A     		ldr	r3, [r7, #36]
 2428 00a0 5A00     		lsls	r2, r3, #1
 2429              		.loc 1 1124 5
 2430 00a2 3B68     		ldr	r3, [r7]
 2431 00a4 1A44     		add	r2, r2, r3
 2432 00a6 07F11003 		add	r3, r7, #16
 2433 00aa A849     		ldr	r1, .L179+4
 2434 00ac 1846     		mov	r0, r3
 2435 00ae FFF7FEFF 		bl	sprintf
1125:MonoGFX/MonoGFX.c ****     MonoGFX_Decode_UTF8(8, 28, 0, 0, text);
 2436              		.loc 1 1125 5
 2437 00b2 07F11003 		add	r3, r7, #16
 2438 00b6 0093     		str	r3, [sp]
 2439 00b8 0023     		movs	r3, #0
 2440 00ba 0022     		movs	r2, #0
 2441 00bc 1C21     		movs	r1, #28
 2442 00be 0820     		movs	r0, #8
 2443 00c0 FFF7FEFF 		bl	MonoGFX_Decode_UTF8
1126:MonoGFX/MonoGFX.c ****     sprintf(text, "%4.1d", (y_min + val_del * 3));
 2444              		.loc 1 1126 45
 2445 00c4 7A6A     		ldr	r2, [r7, #36]
 2446 00c6 1346     		mov	r3, r2
 2447 00c8 5B00     		lsls	r3, r3, #1
 2448 00ca 1A44     		add	r2, r2, r3
 2449              		.loc 1 1126 5
 2450 00cc 3B68     		ldr	r3, [r7]
 2451 00ce 1A44     		add	r2, r2, r3
 2452 00d0 07F11003 		add	r3, r7, #16
 2453 00d4 9D49     		ldr	r1, .L179+4
 2454 00d6 1846     		mov	r0, r3
 2455 00d8 FFF7FEFF 		bl	sprintf
1127:MonoGFX/MonoGFX.c ****     MonoGFX_Decode_UTF8(8, 18, 0, 0, text);
 2456              		.loc 1 1127 5
 2457 00dc 07F11003 		add	r3, r7, #16
 2458 00e0 0093     		str	r3, [sp]
 2459 00e2 0023     		movs	r3, #0
 2460 00e4 0022     		movs	r2, #0
 2461 00e6 1221     		movs	r1, #18
 2462 00e8 0820     		movs	r0, #8
 2463 00ea FFF7FEFF 		bl	MonoGFX_Decode_UTF8
1128:MonoGFX/MonoGFX.c ****     sprintf(text, "%4.1d", (y_min + val_del * 4));
 2464              		.loc 1 1128 45
 2465 00ee 7B6A     		ldr	r3, [r7, #36]
 2466 00f0 9A00     		lsls	r2, r3, #2
 2467              		.loc 1 1128 5
 2468 00f2 3B68     		ldr	r3, [r7]
 2469 00f4 1A44     		add	r2, r2, r3
 2470 00f6 07F11003 		add	r3, r7, #16
 2471 00fa 9449     		ldr	r1, .L179+4
 2472 00fc 1846     		mov	r0, r3
 2473 00fe FFF7FEFF 		bl	sprintf
1129:MonoGFX/MonoGFX.c ****     MonoGFX_Decode_UTF8(8, 8, 0, 0, text);
 2474              		.loc 1 1129 5
ARM GAS  C:\Users\Oleg\AppData\Local\Temp\ccxd6WqM.s 			page 69


 2475 0102 07F11003 		add	r3, r7, #16
 2476 0106 0093     		str	r3, [sp]
 2477 0108 0023     		movs	r3, #0
 2478 010a 0022     		movs	r2, #0
 2479 010c 0821     		movs	r1, #8
 2480 010e 0820     		movs	r0, #8
 2481 0110 FFF7FEFF 		bl	MonoGFX_Decode_UTF8
1130:MonoGFX/MonoGFX.c ****     sprintf(text, "%4.1d", y_max);
 2482              		.loc 1 1130 5
 2483 0114 07F11003 		add	r3, r7, #16
 2484 0118 3A6D     		ldr	r2, [r7, #80]
 2485 011a 8C49     		ldr	r1, .L179+4
 2486 011c 1846     		mov	r0, r3
 2487 011e FFF7FEFF 		bl	sprintf
1131:MonoGFX/MonoGFX.c ****     MonoGFX_Decode_UTF8(8, 0, 0, 0, text);
 2488              		.loc 1 1131 5
 2489 0122 07F11003 		add	r3, r7, #16
 2490 0126 0093     		str	r3, [sp]
 2491 0128 0023     		movs	r3, #0
 2492 012a 0022     		movs	r2, #0
 2493 012c 0021     		movs	r1, #0
 2494 012e 0820     		movs	r0, #8
 2495 0130 FFF7FEFF 		bl	MonoGFX_Decode_UTF8
1132:MonoGFX/MonoGFX.c **** 
1133:MonoGFX/MonoGFX.c ****     if (time_interval == 0) {
 2496              		.loc 1 1133 8
 2497 0134 97F85830 		ldrb	r3, [r7, #88]	@ zero_extendqisi2
 2498 0138 002B     		cmp	r3, #0
 2499 013a 08D1     		bne	.L153
1134:MonoGFX/MonoGFX.c ****         sprintf(text, "%2.1dc–µ–∫.", x_grid_time);
 2500              		.loc 1 1134 9
 2501 013c 97F85420 		ldrb	r2, [r7, #84]	@ zero_extendqisi2
 2502 0140 07F11003 		add	r3, r7, #16
 2503 0144 8249     		ldr	r1, .L179+8
 2504 0146 1846     		mov	r0, r3
 2505 0148 FFF7FEFF 		bl	sprintf
 2506 014c 18E0     		b	.L154
 2507              	.L153:
1135:MonoGFX/MonoGFX.c ****     } else if (time_interval == 1) {
 2508              		.loc 1 1135 15
 2509 014e 97F85830 		ldrb	r3, [r7, #88]	@ zero_extendqisi2
 2510 0152 012B     		cmp	r3, #1
 2511 0154 08D1     		bne	.L155
1136:MonoGFX/MonoGFX.c ****         sprintf(text, "%2.1d–º–∏–Ω.", x_grid_time);
 2512              		.loc 1 1136 9
 2513 0156 97F85420 		ldrb	r2, [r7, #84]	@ zero_extendqisi2
 2514 015a 07F11003 		add	r3, r7, #16
 2515 015e 7D49     		ldr	r1, .L179+12
 2516 0160 1846     		mov	r0, r3
 2517 0162 FFF7FEFF 		bl	sprintf
 2518 0166 0BE0     		b	.L154
 2519              	.L155:
1137:MonoGFX/MonoGFX.c ****     } else if (time_interval == 2) {
 2520              		.loc 1 1137 15
 2521 0168 97F85830 		ldrb	r3, [r7, #88]	@ zero_extendqisi2
 2522 016c 022B     		cmp	r3, #2
 2523 016e 07D1     		bne	.L154
ARM GAS  C:\Users\Oleg\AppData\Local\Temp\ccxd6WqM.s 			page 70


1138:MonoGFX/MonoGFX.c ****         sprintf(text, "%2.1d—á–∞—Å.", x_grid_time);
 2524              		.loc 1 1138 9
 2525 0170 97F85420 		ldrb	r2, [r7, #84]	@ zero_extendqisi2
 2526 0174 07F11003 		add	r3, r7, #16
 2527 0178 7749     		ldr	r1, .L179+16
 2528 017a 1846     		mov	r0, r3
 2529 017c FFF7FEFF 		bl	sprintf
 2530              	.L154:
1139:MonoGFX/MonoGFX.c ****     }
1140:MonoGFX/MonoGFX.c ****     MonoGFX_Decode_UTF8(53, 57, 1, 0, text);
 2531              		.loc 1 1140 5
 2532 0180 07F11003 		add	r3, r7, #16
 2533 0184 0093     		str	r3, [sp]
 2534 0186 0023     		movs	r3, #0
 2535 0188 0122     		movs	r2, #1
 2536 018a 3921     		movs	r1, #57
 2537 018c 3520     		movs	r0, #53
 2538 018e FFF7FEFF 		bl	MonoGFX_Decode_UTF8
1141:MonoGFX/MonoGFX.c **** 
1142:MonoGFX/MonoGFX.c ****     /*----------------–û—Å—å –∞—Å—Ü–∏—Å—Å, –æ—Å—å –æ—Ä–¥–∏–Ω–∞—Ç, —Ä–∞–∑–º–µ—Ç–∫–∞-----------------
1143:MonoGFX/MonoGFX.c **** 
1144:MonoGFX/MonoGFX.c ****     MonoGFX_Draw_line(27, 50, 127, 50, 1);  // –æ—Å—å –∞–±—Å—Ü–∏—Å—Å
 2539              		.loc 1 1144 5
 2540 0192 0123     		movs	r3, #1
 2541 0194 0093     		str	r3, [sp]
 2542 0196 3223     		movs	r3, #50
 2543 0198 7F22     		movs	r2, #127
 2544 019a 3221     		movs	r1, #50
 2545 019c 1B20     		movs	r0, #27
 2546 019e FFF7FEFF 		bl	MonoGFX_Draw_line
 2547              	.LBB17:
1145:MonoGFX/MonoGFX.c ****     for (uint8_t i = 27; i <= 77; i = i + 10) {
 2548              		.loc 1 1145 18
 2549 01a2 1B23     		movs	r3, #27
 2550 01a4 87F83730 		strb	r3, [r7, #55]
 2551              		.loc 1 1145 5
 2552 01a8 0EE0     		b	.L156
 2553              	.L157:
1146:MonoGFX/MonoGFX.c ****         MonoGFX_Draw_line(i, 51, i, 52, 1);
 2554              		.loc 1 1146 9 discriminator 3
 2555 01aa 97F83720 		ldrb	r2, [r7, #55]	@ zero_extendqisi2
 2556 01ae 97F83700 		ldrb	r0, [r7, #55]	@ zero_extendqisi2
 2557 01b2 0123     		movs	r3, #1
 2558 01b4 0093     		str	r3, [sp]
 2559 01b6 3423     		movs	r3, #52
 2560 01b8 3321     		movs	r1, #51
 2561 01ba FFF7FEFF 		bl	MonoGFX_Draw_line
1145:MonoGFX/MonoGFX.c ****     for (uint8_t i = 27; i <= 77; i = i + 10) {
 2562              		.loc 1 1145 37 discriminator 3
 2563 01be 97F83730 		ldrb	r3, [r7, #55]
 2564 01c2 0A33     		adds	r3, r3, #10
 2565 01c4 87F83730 		strb	r3, [r7, #55]
 2566              	.L156:
1145:MonoGFX/MonoGFX.c ****     for (uint8_t i = 27; i <= 77; i = i + 10) {
 2567              		.loc 1 1145 5 discriminator 1
 2568 01c8 97F83730 		ldrb	r3, [r7, #55]	@ zero_extendqisi2
 2569 01cc 4D2B     		cmp	r3, #77
ARM GAS  C:\Users\Oleg\AppData\Local\Temp\ccxd6WqM.s 			page 71


 2570 01ce ECD9     		bls	.L157
 2571              	.LBE17:
 2572              	.LBB18:
1147:MonoGFX/MonoGFX.c ****     }
1148:MonoGFX/MonoGFX.c ****     for (uint8_t i = 87; i <= 127; i = i + 10) {
 2573              		.loc 1 1148 18
 2574 01d0 5723     		movs	r3, #87
 2575 01d2 87F83630 		strb	r3, [r7, #54]
 2576              		.loc 1 1148 5
 2577 01d6 0CE0     		b	.L158
 2578              	.L159:
1149:MonoGFX/MonoGFX.c ****         MonoGFX_Draw_pixel(i, 51, 1);
 2579              		.loc 1 1149 9 discriminator 3
 2580 01d8 97F83630 		ldrb	r3, [r7, #54]	@ zero_extendqisi2
 2581 01dc 1BB2     		sxth	r3, r3
 2582 01de 0122     		movs	r2, #1
 2583 01e0 3321     		movs	r1, #51
 2584 01e2 1846     		mov	r0, r3
 2585 01e4 FFF7FEFF 		bl	MonoGFX_Draw_pixel
1148:MonoGFX/MonoGFX.c ****         MonoGFX_Draw_pixel(i, 51, 1);
 2586              		.loc 1 1148 38 discriminator 3
 2587 01e8 97F83630 		ldrb	r3, [r7, #54]
 2588 01ec 0A33     		adds	r3, r3, #10
 2589 01ee 87F83630 		strb	r3, [r7, #54]
 2590              	.L158:
1148:MonoGFX/MonoGFX.c ****         MonoGFX_Draw_pixel(i, 51, 1);
 2591              		.loc 1 1148 28 discriminator 1
 2592 01f2 97F93630 		ldrsb	r3, [r7, #54]
1148:MonoGFX/MonoGFX.c ****         MonoGFX_Draw_pixel(i, 51, 1);
 2593              		.loc 1 1148 5 discriminator 1
 2594 01f6 002B     		cmp	r3, #0
 2595 01f8 EEDA     		bge	.L159
 2596              	.LBE18:
1150:MonoGFX/MonoGFX.c ****     }
1151:MonoGFX/MonoGFX.c **** 
1152:MonoGFX/MonoGFX.c ****     MonoGFX_Draw_line(27, 0, 27, 50, 1);  // –æ—Å—å –æ—Ä–¥–∏–Ω–∞—Ç
 2597              		.loc 1 1152 5
 2598 01fa 0123     		movs	r3, #1
 2599 01fc 0093     		str	r3, [sp]
 2600 01fe 3223     		movs	r3, #50
 2601 0200 1B22     		movs	r2, #27
 2602 0202 0021     		movs	r1, #0
 2603 0204 1B20     		movs	r0, #27
 2604 0206 FFF7FEFF 		bl	MonoGFX_Draw_line
 2605              	.LBB19:
1153:MonoGFX/MonoGFX.c ****     for (uint8_t i = 0; i <= 50; i = i + 10) {
 2606              		.loc 1 1153 18
 2607 020a 0023     		movs	r3, #0
 2608 020c 87F83530 		strb	r3, [r7, #53]
 2609              		.loc 1 1153 5
 2610 0210 0EE0     		b	.L160
 2611              	.L161:
1154:MonoGFX/MonoGFX.c ****         MonoGFX_Draw_line(25, i, 27, i, 1);
 2612              		.loc 1 1154 9 discriminator 3
 2613 0212 97F83530 		ldrb	r3, [r7, #53]	@ zero_extendqisi2
 2614 0216 97F83510 		ldrb	r1, [r7, #53]	@ zero_extendqisi2
 2615 021a 0122     		movs	r2, #1
ARM GAS  C:\Users\Oleg\AppData\Local\Temp\ccxd6WqM.s 			page 72


 2616 021c 0092     		str	r2, [sp]
 2617 021e 1B22     		movs	r2, #27
 2618 0220 1920     		movs	r0, #25
 2619 0222 FFF7FEFF 		bl	MonoGFX_Draw_line
1153:MonoGFX/MonoGFX.c ****     for (uint8_t i = 0; i <= 50; i = i + 10) {
 2620              		.loc 1 1153 36 discriminator 3
 2621 0226 97F83530 		ldrb	r3, [r7, #53]
 2622 022a 0A33     		adds	r3, r3, #10
 2623 022c 87F83530 		strb	r3, [r7, #53]
 2624              	.L160:
1153:MonoGFX/MonoGFX.c ****     for (uint8_t i = 0; i <= 50; i = i + 10) {
 2625              		.loc 1 1153 5 discriminator 1
 2626 0230 97F83530 		ldrb	r3, [r7, #53]	@ zero_extendqisi2
 2627 0234 322B     		cmp	r3, #50
 2628 0236 ECD9     		bls	.L161
 2629              	.LBE19:
1155:MonoGFX/MonoGFX.c ****     }
1156:MonoGFX/MonoGFX.c **** 
1157:MonoGFX/MonoGFX.c ****     MonoGFX_Draw_line(57, 53, 57, 55, 1);    // –ü–æ–ª–æ—Å–∞ –ø–æ —Ö –ª–µ–≤–∞—è
 2630              		.loc 1 1157 5
 2631 0238 0123     		movs	r3, #1
 2632 023a 0093     		str	r3, [sp]
 2633 023c 3723     		movs	r3, #55
 2634 023e 3922     		movs	r2, #57
 2635 0240 3521     		movs	r1, #53
 2636 0242 3920     		movs	r0, #57
 2637 0244 FFF7FEFF 		bl	MonoGFX_Draw_line
1158:MonoGFX/MonoGFX.c ****     MonoGFX_Draw_line(67, 53, 67, 55, 1);    // –ü–æ–ª–æ—Å–∞ –ø–æ —Ö –ø—Ä–∞–≤–∞—è
 2638              		.loc 1 1158 5
 2639 0248 0123     		movs	r3, #1
 2640 024a 0093     		str	r3, [sp]
 2641 024c 3723     		movs	r3, #55
 2642 024e 4322     		movs	r2, #67
 2643 0250 3521     		movs	r1, #53
 2644 0252 4320     		movs	r0, #67
 2645 0254 FFF7FEFF 		bl	MonoGFX_Draw_line
1159:MonoGFX/MonoGFX.c ****     MonoGFX_Draw_line(52, 54, 72, 54, 1);    // –ü–æ–ª–æ—Å–∞ –º–µ–∂–¥—É –¥–µ–ª–µ–Ω–∏—è–º–∏ –ø–æ —Ö
 2646              		.loc 1 1159 5
 2647 0258 0123     		movs	r3, #1
 2648 025a 0093     		str	r3, [sp]
 2649 025c 3623     		movs	r3, #54
 2650 025e 4822     		movs	r2, #72
 2651 0260 3621     		movs	r1, #54
 2652 0262 3420     		movs	r0, #52
 2653 0264 FFF7FEFF 		bl	MonoGFX_Draw_line
1160:MonoGFX/MonoGFX.c ****     MonoGFX_Draw_line(54, 52, 54, 56, 1);    // –õ–µ–≤–∞—è —Å—Ç—Ä–µ–ª–∫–∞ –Ω–∞ –¥–µ–ª–µ–Ω–∏–µ
 2654              		.loc 1 1160 5
 2655 0268 0123     		movs	r3, #1
 2656 026a 0093     		str	r3, [sp]
 2657 026c 3823     		movs	r3, #56
 2658 026e 3622     		movs	r2, #54
 2659 0270 3421     		movs	r1, #52
 2660 0272 3620     		movs	r0, #54
 2661 0274 FFF7FEFF 		bl	MonoGFX_Draw_line
1161:MonoGFX/MonoGFX.c ****     MonoGFX_Draw_line(55, 53, 55, 55, 1);    // –õ–µ–≤–∞—è —Å—Ç—Ä–µ–ª–∫–∞ –Ω–∞ –¥–µ–ª–µ–Ω–∏–µ
 2662              		.loc 1 1161 5
 2663 0278 0123     		movs	r3, #1
ARM GAS  C:\Users\Oleg\AppData\Local\Temp\ccxd6WqM.s 			page 73


 2664 027a 0093     		str	r3, [sp]
 2665 027c 3723     		movs	r3, #55
 2666 027e 3722     		movs	r2, #55
 2667 0280 3521     		movs	r1, #53
 2668 0282 3720     		movs	r0, #55
 2669 0284 FFF7FEFF 		bl	MonoGFX_Draw_line
1162:MonoGFX/MonoGFX.c ****     MonoGFX_Draw_line(69, 53, 69, 55, 1);    // –ü—Ä–∞–≤–∞—è —Å—Ç—Ä–µ–ª–∫–∞ –Ω–∞ –¥–µ–ª–µ–Ω–∏–µ
 2670              		.loc 1 1162 5
 2671 0288 0123     		movs	r3, #1
 2672 028a 0093     		str	r3, [sp]
 2673 028c 3723     		movs	r3, #55
 2674 028e 4522     		movs	r2, #69
 2675 0290 3521     		movs	r1, #53
 2676 0292 4520     		movs	r0, #69
 2677 0294 FFF7FEFF 		bl	MonoGFX_Draw_line
1163:MonoGFX/MonoGFX.c ****     MonoGFX_Draw_line(70, 52, 70, 56, 1);    // –ü—Ä–∞–≤–∞—è —Å—Ç—Ä–µ–ª–∫–∞ –Ω–∞ –¥–µ–ª–µ–Ω–∏–µ
 2678              		.loc 1 1163 5
 2679 0298 0123     		movs	r3, #1
 2680 029a 0093     		str	r3, [sp]
 2681 029c 3823     		movs	r3, #56
 2682 029e 4622     		movs	r2, #70
 2683 02a0 3421     		movs	r1, #52
 2684 02a2 4620     		movs	r0, #70
 2685 02a4 FFF7FEFF 		bl	MonoGFX_Draw_line
1164:MonoGFX/MonoGFX.c ****     MonoGFX_Draw_line(127, 53, 127, 57, 1);  // –û—Ç–º–µ—Ç–∫–∞ "—Å–µ–π—á–∞—Å"
 2686              		.loc 1 1164 5
 2687 02a8 0123     		movs	r3, #1
 2688 02aa 0093     		str	r3, [sp]
 2689 02ac 3923     		movs	r3, #57
 2690 02ae 7F22     		movs	r2, #127
 2691 02b0 3521     		movs	r1, #53
 2692 02b2 7F20     		movs	r0, #127
 2693 02b4 FFF7FEFF 		bl	MonoGFX_Draw_line
1165:MonoGFX/MonoGFX.c ****     MonoGFX_Draw_line(122, 55, 127, 55, 1);  // –°—Ç—Ä–µ–ª–∫–∞ –Ω–∞ "—Å–µ–π—á–∞—Å"
 2694              		.loc 1 1165 5
 2695 02b8 0123     		movs	r3, #1
 2696 02ba 0093     		str	r3, [sp]
 2697 02bc 3723     		movs	r3, #55
 2698 02be 7F22     		movs	r2, #127
 2699 02c0 3721     		movs	r1, #55
 2700 02c2 7A20     		movs	r0, #122
 2701 02c4 FFF7FEFF 		bl	MonoGFX_Draw_line
1166:MonoGFX/MonoGFX.c ****     MonoGFX_Draw_line(124, 53, 124, 57, 1);  // –°—Ç—Ä–µ–ª–∫–∞ –Ω–∞ "—Å–µ–π—á–∞—Å"
 2702              		.loc 1 1166 5
 2703 02c8 0123     		movs	r3, #1
 2704 02ca 0093     		str	r3, [sp]
 2705 02cc 3923     		movs	r3, #57
 2706 02ce 7C22     		movs	r2, #124
 2707 02d0 3521     		movs	r1, #53
 2708 02d2 7C20     		movs	r0, #124
 2709 02d4 FFF7FEFF 		bl	MonoGFX_Draw_line
1167:MonoGFX/MonoGFX.c ****     MonoGFX_Draw_line(125, 54, 125, 56, 1);  // –°—Ç—Ä–µ–ª–∫–∞ –Ω–∞ "—Å–µ–π—á–∞—Å"
 2710              		.loc 1 1167 5
 2711 02d8 0123     		movs	r3, #1
 2712 02da 0093     		str	r3, [sp]
 2713 02dc 3823     		movs	r3, #56
 2714 02de 7D22     		movs	r2, #125
ARM GAS  C:\Users\Oleg\AppData\Local\Temp\ccxd6WqM.s 			page 74


 2715 02e0 3621     		movs	r1, #54
 2716 02e2 7D20     		movs	r0, #125
 2717 02e4 FFF7FEFF 		bl	MonoGFX_Draw_line
1168:MonoGFX/MonoGFX.c **** 
1169:MonoGFX/MonoGFX.c ****     /*----------------–û—Å—å –∞—Å—Ü–∏—Å—Å, –æ—Å—å –æ—Ä–¥–∏–Ω–∞—Ç, —Ä–∞–∑–º–µ—Ç–∫–∞-----------------
1170:MonoGFX/MonoGFX.c **** 
1171:MonoGFX/MonoGFX.c ****     /*--------------------------–†–∞–∑–º–µ—Ç–∫–∞ —Å–µ—Ç–∫–∏-------------------------*/
1172:MonoGFX/MonoGFX.c ****     if (grid) {
 2718              		.loc 1 1172 8
 2719 02e8 97F85C30 		ldrb	r3, [r7, #92]	@ zero_extendqisi2
 2720 02ec 002B     		cmp	r3, #0
 2721 02ee 51D0     		beq	.L162
 2722              	.LBB20:
1173:MonoGFX/MonoGFX.c ****         for (uint8_t y = 0; y <= 40; y = y + 10) {
 2723              		.loc 1 1173 22
 2724 02f0 0023     		movs	r3, #0
 2725 02f2 87F83430 		strb	r3, [r7, #52]
 2726              		.loc 1 1173 9
 2727 02f6 1BE0     		b	.L163
 2728              	.L166:
 2729              	.LBB21:
1174:MonoGFX/MonoGFX.c ****             for (uint8_t x = 27; x <= 127; x = x + 2) {
 2730              		.loc 1 1174 26
 2731 02f8 1B23     		movs	r3, #27
 2732 02fa 87F83330 		strb	r3, [r7, #51]
 2733              		.loc 1 1174 13
 2734 02fe 0EE0     		b	.L164
 2735              	.L165:
1175:MonoGFX/MonoGFX.c ****                 MonoGFX_Draw_pixel(x, y, 1);
 2736              		.loc 1 1175 17 discriminator 3
 2737 0300 97F83330 		ldrb	r3, [r7, #51]	@ zero_extendqisi2
 2738 0304 1BB2     		sxth	r3, r3
 2739 0306 97F83420 		ldrb	r2, [r7, #52]	@ zero_extendqisi2
 2740 030a 11B2     		sxth	r1, r2
 2741 030c 0122     		movs	r2, #1
 2742 030e 1846     		mov	r0, r3
 2743 0310 FFF7FEFF 		bl	MonoGFX_Draw_pixel
1174:MonoGFX/MonoGFX.c ****             for (uint8_t x = 27; x <= 127; x = x + 2) {
 2744              		.loc 1 1174 46 discriminator 3
 2745 0314 97F83330 		ldrb	r3, [r7, #51]
 2746 0318 0233     		adds	r3, r3, #2
 2747 031a 87F83330 		strb	r3, [r7, #51]
 2748              	.L164:
1174:MonoGFX/MonoGFX.c ****             for (uint8_t x = 27; x <= 127; x = x + 2) {
 2749              		.loc 1 1174 36 discriminator 1
 2750 031e 97F93330 		ldrsb	r3, [r7, #51]
1174:MonoGFX/MonoGFX.c ****             for (uint8_t x = 27; x <= 127; x = x + 2) {
 2751              		.loc 1 1174 13 discriminator 1
 2752 0322 002B     		cmp	r3, #0
 2753 0324 ECDA     		bge	.L165
 2754              	.LBE21:
1173:MonoGFX/MonoGFX.c ****         for (uint8_t y = 0; y <= 40; y = y + 10) {
 2755              		.loc 1 1173 40 discriminator 2
 2756 0326 97F83430 		ldrb	r3, [r7, #52]
 2757 032a 0A33     		adds	r3, r3, #10
 2758 032c 87F83430 		strb	r3, [r7, #52]
 2759              	.L163:
ARM GAS  C:\Users\Oleg\AppData\Local\Temp\ccxd6WqM.s 			page 75


1173:MonoGFX/MonoGFX.c ****         for (uint8_t y = 0; y <= 40; y = y + 10) {
 2760              		.loc 1 1173 9 discriminator 1
 2761 0330 97F83430 		ldrb	r3, [r7, #52]	@ zero_extendqisi2
 2762 0334 282B     		cmp	r3, #40
 2763 0336 DFD9     		bls	.L166
 2764              	.LBE20:
 2765              	.LBB22:
1176:MonoGFX/MonoGFX.c ****             }
1177:MonoGFX/MonoGFX.c ****         }
1178:MonoGFX/MonoGFX.c **** 
1179:MonoGFX/MonoGFX.c ****         for (uint8_t x = 27; x <= 127; x = x + 10) {
 2766              		.loc 1 1179 22
 2767 0338 1B23     		movs	r3, #27
 2768 033a 87F83230 		strb	r3, [r7, #50]
 2769              		.loc 1 1179 9
 2770 033e 25E0     		b	.L167
 2771              	.L170:
 2772              	.LBB23:
1180:MonoGFX/MonoGFX.c ****             for (uint8_t y = 0; y <= 50; y = y + 2) {
 2773              		.loc 1 1180 26
 2774 0340 0023     		movs	r3, #0
 2775 0342 87F83130 		strb	r3, [r7, #49]
 2776              		.loc 1 1180 13
 2777 0346 18E0     		b	.L168
 2778              	.L180:
 2779              		.align	2
 2780              	.L179:
 2781 0348 67666666 		.word	1717986919
 2782 034c 10000000 		.word	.LC1
 2783 0350 18000000 		.word	.LC2
 2784 0354 24000000 		.word	.LC3
 2785 0358 34000000 		.word	.LC4
 2786              	.L169:
1181:MonoGFX/MonoGFX.c ****                 MonoGFX_Draw_pixel(x, y, 1);
 2787              		.loc 1 1181 17 discriminator 3
 2788 035c 97F83230 		ldrb	r3, [r7, #50]	@ zero_extendqisi2
 2789 0360 1BB2     		sxth	r3, r3
 2790 0362 97F83120 		ldrb	r2, [r7, #49]	@ zero_extendqisi2
 2791 0366 11B2     		sxth	r1, r2
 2792 0368 0122     		movs	r2, #1
 2793 036a 1846     		mov	r0, r3
 2794 036c FFF7FEFF 		bl	MonoGFX_Draw_pixel
1180:MonoGFX/MonoGFX.c ****             for (uint8_t y = 0; y <= 50; y = y + 2) {
 2795              		.loc 1 1180 44 discriminator 3
 2796 0370 97F83130 		ldrb	r3, [r7, #49]
 2797 0374 0233     		adds	r3, r3, #2
 2798 0376 87F83130 		strb	r3, [r7, #49]
 2799              	.L168:
1180:MonoGFX/MonoGFX.c ****             for (uint8_t y = 0; y <= 50; y = y + 2) {
 2800              		.loc 1 1180 13 discriminator 1
 2801 037a 97F83130 		ldrb	r3, [r7, #49]	@ zero_extendqisi2
 2802 037e 322B     		cmp	r3, #50
 2803 0380 ECD9     		bls	.L169
 2804              	.LBE23:
1179:MonoGFX/MonoGFX.c ****             for (uint8_t y = 0; y <= 50; y = y + 2) {
 2805              		.loc 1 1179 42 discriminator 2
 2806 0382 97F83230 		ldrb	r3, [r7, #50]
ARM GAS  C:\Users\Oleg\AppData\Local\Temp\ccxd6WqM.s 			page 76


 2807 0386 0A33     		adds	r3, r3, #10
 2808 0388 87F83230 		strb	r3, [r7, #50]
 2809              	.L167:
1179:MonoGFX/MonoGFX.c ****             for (uint8_t y = 0; y <= 50; y = y + 2) {
 2810              		.loc 1 1179 32 discriminator 1
 2811 038c 97F93230 		ldrsb	r3, [r7, #50]
1179:MonoGFX/MonoGFX.c ****             for (uint8_t y = 0; y <= 50; y = y + 2) {
 2812              		.loc 1 1179 9 discriminator 1
 2813 0390 002B     		cmp	r3, #0
 2814 0392 D5DA     		bge	.L170
 2815              	.L162:
 2816              	.LBE22:
1182:MonoGFX/MonoGFX.c ****             }
1183:MonoGFX/MonoGFX.c ****         }
1184:MonoGFX/MonoGFX.c ****     }
1185:MonoGFX/MonoGFX.c ****     /*--------------------------–†–∞–∑–º–µ—Ç–∫–∞ —Å–µ—Ç–∫–∏-------------------------*/
1186:MonoGFX/MonoGFX.c **** 
1187:MonoGFX/MonoGFX.c ****     if (*counter <= size_array) {
 2817              		.loc 1 1187 9
 2818 0394 FB68     		ldr	r3, [r7, #12]
 2819 0396 1B78     		ldrb	r3, [r3]	@ zero_extendqisi2
 2820              		.loc 1 1187 8
 2821 0398 FA79     		ldrb	r2, [r7, #7]	@ zero_extendqisi2
 2822 039a 9A42     		cmp	r2, r3
 2823 039c 07D3     		bcc	.L171
1188:MonoGFX/MonoGFX.c ****         if (*counter == size_array) {
 2824              		.loc 1 1188 13
 2825 039e FB68     		ldr	r3, [r7, #12]
 2826 03a0 1B78     		ldrb	r3, [r3]	@ zero_extendqisi2
 2827              		.loc 1 1188 12
 2828 03a2 FA79     		ldrb	r2, [r7, #7]	@ zero_extendqisi2
 2829 03a4 9A42     		cmp	r2, r3
 2830 03a6 02D1     		bne	.L171
1189:MonoGFX/MonoGFX.c ****             array_is_full = true;
 2831              		.loc 1 1189 27
 2832 03a8 2F4B     		ldr	r3, .L181
 2833 03aa 0122     		movs	r2, #1
 2834 03ac 1A70     		strb	r2, [r3]
 2835              	.L171:
1190:MonoGFX/MonoGFX.c ****         }
1191:MonoGFX/MonoGFX.c ****     }
1192:MonoGFX/MonoGFX.c **** 
1193:MonoGFX/MonoGFX.c ****     if (array_is_full) {
 2836              		.loc 1 1193 9
 2837 03ae 2E4B     		ldr	r3, .L181
 2838 03b0 1B78     		ldrb	r3, [r3]	@ zero_extendqisi2
 2839              		.loc 1 1193 8
 2840 03b2 002B     		cmp	r3, #0
 2841 03b4 29D0     		beq	.L172
 2842              	.LBB24:
1194:MonoGFX/MonoGFX.c ****         for (int i = 0; i < size_array - 1; i++) {
 2843              		.loc 1 1194 18
 2844 03b6 0023     		movs	r3, #0
 2845 03b8 FB62     		str	r3, [r7, #44]
 2846              		.loc 1 1194 9
 2847 03ba 20E0     		b	.L173
 2848              	.L174:
ARM GAS  C:\Users\Oleg\AppData\Local\Temp\ccxd6WqM.s 			page 77


1195:MonoGFX/MonoGFX.c ****             // MonoGFX_Draw_pixel(127 - i, 50 - array[i], 1); //–†–∏—Å—É–µ–º —Ç–æ—á–∫–∞–º–∏
1196:MonoGFX/MonoGFX.c ****             MonoGFX_Draw_line(127 - (i + 1), 50 - array[i + 1], 127 - i, 50 - array[i], 1);  // –†–
 2849              		.loc 1 1196 13 discriminator 3
 2850 03bc FB6A     		ldr	r3, [r7, #44]
 2851 03be DBB2     		uxtb	r3, r3
 2852 03c0 C3F17E03 		rsb	r3, r3, #126
 2853 03c4 D8B2     		uxtb	r0, r3
 2854              		.loc 1 1196 56 discriminator 3
 2855 03c6 FB6A     		ldr	r3, [r7, #44]
 2856 03c8 0133     		adds	r3, r3, #1
 2857 03ca BA68     		ldr	r2, [r7, #8]
 2858 03cc 1344     		add	r3, r3, r2
 2859 03ce 1B78     		ldrb	r3, [r3]	@ zero_extendqisi2
 2860              		.loc 1 1196 13 discriminator 3
 2861 03d0 C3F13203 		rsb	r3, r3, #50
 2862 03d4 D9B2     		uxtb	r1, r3
 2863 03d6 FB6A     		ldr	r3, [r7, #44]
 2864 03d8 DBB2     		uxtb	r3, r3
 2865 03da C3F17F03 		rsb	r3, r3, #127
 2866 03de DCB2     		uxtb	r4, r3
 2867              		.loc 1 1196 84 discriminator 3
 2868 03e0 FB6A     		ldr	r3, [r7, #44]
 2869 03e2 BA68     		ldr	r2, [r7, #8]
 2870 03e4 1344     		add	r3, r3, r2
 2871 03e6 1B78     		ldrb	r3, [r3]	@ zero_extendqisi2
 2872              		.loc 1 1196 13 discriminator 3
 2873 03e8 C3F13203 		rsb	r3, r3, #50
 2874 03ec DBB2     		uxtb	r3, r3
 2875 03ee 0122     		movs	r2, #1
 2876 03f0 0092     		str	r2, [sp]
 2877 03f2 2246     		mov	r2, r4
 2878 03f4 FFF7FEFF 		bl	MonoGFX_Draw_line
1194:MonoGFX/MonoGFX.c ****         for (int i = 0; i < size_array - 1; i++) {
 2879              		.loc 1 1194 46 discriminator 3
 2880 03f8 FB6A     		ldr	r3, [r7, #44]
 2881 03fa 0133     		adds	r3, r3, #1
 2882 03fc FB62     		str	r3, [r7, #44]
 2883              	.L173:
1194:MonoGFX/MonoGFX.c ****         for (int i = 0; i < size_array - 1; i++) {
 2884              		.loc 1 1194 40 discriminator 1
 2885 03fe FB79     		ldrb	r3, [r7, #7]	@ zero_extendqisi2
 2886 0400 013B     		subs	r3, r3, #1
1194:MonoGFX/MonoGFX.c ****         for (int i = 0; i < size_array - 1; i++) {
 2887              		.loc 1 1194 9 discriminator 1
 2888 0402 FA6A     		ldr	r2, [r7, #44]
 2889 0404 9A42     		cmp	r2, r3
 2890 0406 D9DB     		blt	.L174
 2891              	.LBE24:
1197:MonoGFX/MonoGFX.c ****             // MonoGFX_Draw_line(127-i, 50, 127-i, 50 - array[i], 1);//–ó–∞–∫—Ä–∞—à–∏–≤–∞–µ–º –æ–±–
1198:MonoGFX/MonoGFX.c ****         }
1199:MonoGFX/MonoGFX.c ****     } else {
1200:MonoGFX/MonoGFX.c ****         for (int i = 0; i < *counter; i++) {
1201:MonoGFX/MonoGFX.c ****             // MonoGFX_Draw_pixel(127 - i, 50 - array[i], 1); //–†–∏—Å—É–µ–º —Ç–æ—á–∫–∞–º–∏
1202:MonoGFX/MonoGFX.c ****             MonoGFX_Draw_line(127 - (i + 1), 50 - array[i + 1], 127 - i, 50 - array[i], 1);  // –†–
1203:MonoGFX/MonoGFX.c ****             // MonoGFX_Draw_line(127-i, 50, 127-i, 50 - array[i], 1);//–ó–∞–∫—Ä–∞—à–∏–≤–∞–µ–º –æ–±–
1204:MonoGFX/MonoGFX.c ****         }
1205:MonoGFX/MonoGFX.c ****     }
ARM GAS  C:\Users\Oleg\AppData\Local\Temp\ccxd6WqM.s 			page 78


1206:MonoGFX/MonoGFX.c **** }
 2892              		.loc 1 1206 1
 2893 0408 29E0     		b	.L178
 2894              	.L172:
 2895              	.LBB25:
1200:MonoGFX/MonoGFX.c ****             // MonoGFX_Draw_pixel(127 - i, 50 - array[i], 1); //–†–∏—Å—É–µ–º —Ç–æ—á–∫–∞–º–∏
 2896              		.loc 1 1200 18
 2897 040a 0023     		movs	r3, #0
 2898 040c BB62     		str	r3, [r7, #40]
1200:MonoGFX/MonoGFX.c ****             // MonoGFX_Draw_pixel(127 - i, 50 - array[i], 1); //–†–∏—Å—É–µ–º —Ç–æ—á–∫–∞–º–∏
 2899              		.loc 1 1200 9
 2900 040e 20E0     		b	.L176
 2901              	.L177:
1202:MonoGFX/MonoGFX.c ****             // MonoGFX_Draw_line(127-i, 50, 127-i, 50 - array[i], 1);//–ó–∞–∫—Ä–∞—à–∏–≤–∞–µ–º –æ–±–
 2902              		.loc 1 1202 13 discriminator 3
 2903 0410 BB6A     		ldr	r3, [r7, #40]
 2904 0412 DBB2     		uxtb	r3, r3
 2905 0414 C3F17E03 		rsb	r3, r3, #126
 2906 0418 D8B2     		uxtb	r0, r3
1202:MonoGFX/MonoGFX.c ****             // MonoGFX_Draw_line(127-i, 50, 127-i, 50 - array[i], 1);//–ó–∞–∫—Ä–∞—à–∏–≤–∞–µ–º –æ–±–
 2907              		.loc 1 1202 56 discriminator 3
 2908 041a BB6A     		ldr	r3, [r7, #40]
 2909 041c 0133     		adds	r3, r3, #1
 2910 041e BA68     		ldr	r2, [r7, #8]
 2911 0420 1344     		add	r3, r3, r2
 2912 0422 1B78     		ldrb	r3, [r3]	@ zero_extendqisi2
1202:MonoGFX/MonoGFX.c ****             // MonoGFX_Draw_line(127-i, 50, 127-i, 50 - array[i], 1);//–ó–∞–∫—Ä–∞—à–∏–≤–∞–µ–º –æ–±–
 2913              		.loc 1 1202 13 discriminator 3
 2914 0424 C3F13203 		rsb	r3, r3, #50
 2915 0428 D9B2     		uxtb	r1, r3
 2916 042a BB6A     		ldr	r3, [r7, #40]
 2917 042c DBB2     		uxtb	r3, r3
 2918 042e C3F17F03 		rsb	r3, r3, #127
 2919 0432 DCB2     		uxtb	r4, r3
1202:MonoGFX/MonoGFX.c ****             // MonoGFX_Draw_line(127-i, 50, 127-i, 50 - array[i], 1);//–ó–∞–∫—Ä–∞—à–∏–≤–∞–µ–º –æ–±–
 2920              		.loc 1 1202 84 discriminator 3
 2921 0434 BB6A     		ldr	r3, [r7, #40]
 2922 0436 BA68     		ldr	r2, [r7, #8]
 2923 0438 1344     		add	r3, r3, r2
 2924 043a 1B78     		ldrb	r3, [r3]	@ zero_extendqisi2
1202:MonoGFX/MonoGFX.c ****             // MonoGFX_Draw_line(127-i, 50, 127-i, 50 - array[i], 1);//–ó–∞–∫—Ä–∞—à–∏–≤–∞–µ–º –æ–±–
 2925              		.loc 1 1202 13 discriminator 3
 2926 043c C3F13203 		rsb	r3, r3, #50
 2927 0440 DBB2     		uxtb	r3, r3
 2928 0442 0122     		movs	r2, #1
 2929 0444 0092     		str	r2, [sp]
 2930 0446 2246     		mov	r2, r4
 2931 0448 FFF7FEFF 		bl	MonoGFX_Draw_line
1200:MonoGFX/MonoGFX.c ****             // MonoGFX_Draw_pixel(127 - i, 50 - array[i], 1); //–†–∏—Å—É–µ–º —Ç–æ—á–∫–∞–º–∏
 2932              		.loc 1 1200 40 discriminator 3
 2933 044c BB6A     		ldr	r3, [r7, #40]
 2934 044e 0133     		adds	r3, r3, #1
 2935 0450 BB62     		str	r3, [r7, #40]
 2936              	.L176:
1200:MonoGFX/MonoGFX.c ****             // MonoGFX_Draw_pixel(127 - i, 50 - array[i], 1); //–†–∏—Å—É–µ–º —Ç–æ—á–∫–∞–º–∏
 2937              		.loc 1 1200 29 discriminator 1
 2938 0452 FB68     		ldr	r3, [r7, #12]
ARM GAS  C:\Users\Oleg\AppData\Local\Temp\ccxd6WqM.s 			page 79


 2939 0454 1B78     		ldrb	r3, [r3]	@ zero_extendqisi2
 2940 0456 1A46     		mov	r2, r3
1200:MonoGFX/MonoGFX.c ****             // MonoGFX_Draw_pixel(127 - i, 50 - array[i], 1); //–†–∏—Å—É–µ–º —Ç–æ—á–∫–∞–º–∏
 2941              		.loc 1 1200 9 discriminator 1
 2942 0458 BB6A     		ldr	r3, [r7, #40]
 2943 045a 9342     		cmp	r3, r2
 2944 045c D8DB     		blt	.L177
 2945              	.L178:
 2946              	.LBE25:
 2947              		.loc 1 1206 1
 2948 045e 00BF     		nop
 2949 0460 4437     		adds	r7, r7, #68
 2950              		.cfi_def_cfa_offset 12
 2951 0462 BD46     		mov	sp, r7
 2952              		.cfi_def_cfa_register 13
 2953              		@ sp needed
 2954 0464 90BD     		pop	{r4, r7, pc}
 2955              	.L182:
 2956 0466 00BF     		.align	2
 2957              	.L181:
 2958 0468 00000000 		.word	array_is_full
 2959              		.cfi_endproc
 2960              	.LFE81:
 2962              		.section	.text.MonoGFX_Draw_line,"ax",%progbits
 2963              		.align	1
 2964              		.global	MonoGFX_Draw_line
 2965              		.syntax unified
 2966              		.thumb
 2967              		.thumb_func
 2969              	MonoGFX_Draw_line:
 2970              	.LFB82:
1207:MonoGFX/MonoGFX.c **** 
1208:MonoGFX/MonoGFX.c **** /******************************** –†–ê–ë–û–¢–ê –° –ì–ï–û–ú–ï–¢–†–ò–ß–ï–°–ö–ò–ú–ò –§–ò–ì–£–†–ê–ú–ò *
1209:MonoGFX/MonoGFX.c **** 
1210:MonoGFX/MonoGFX.c **** /**
1211:MonoGFX/MonoGFX.c ****  ******************************************************************************
1212:MonoGFX/MonoGFX.c ****  *  @breif –§—É–Ω–∫—Ü–∏—è, —Ä–∏—Å—É—é—â–∞—è –ª–∏–Ω–∏—é
1213:MonoGFX/MonoGFX.c ****  *  @param uint8_t x_start - –Ω–∞—á–∞–ª—å–Ω–∞—è –∫–æ–æ—Ä–¥–∏–Ω–∞—Ç–∞ –ø–æ x
1214:MonoGFX/MonoGFX.c ****  *  @param uint8_t y_start - –Ω–∞—á–∞–ª—å–Ω–∞—è –∫–æ–æ—Ä–¥–∏–Ω–∞—Ç–∞ –ø–æ y
1215:MonoGFX/MonoGFX.c ****  *  @param uint8_t x_end - –∫–æ–Ω–µ—á–Ω–∞—è –∫–æ–æ—Ä–¥–∏–Ω–∞—Ç–∞ –ø–æ x
1216:MonoGFX/MonoGFX.c ****  *  @param uint8_t y_end - –∫–æ–Ω–µ—á–Ω–∞—è –∫–æ–æ—Ä–¥–∏–Ω–∞—Ç–∞ –ø–æ y
1217:MonoGFX/MonoGFX.c ****  *  @param uint8_t color - —Ü–≤–µ—Ç –ø–∏–∫—Å–µ–ª—è (1/0)
1218:MonoGFX/MonoGFX.c ****  ******************************************************************************
1219:MonoGFX/MonoGFX.c ****  */
1220:MonoGFX/MonoGFX.c **** 
1221:MonoGFX/MonoGFX.c **** void MonoGFX_Draw_line(uint8_t x_start, uint8_t y_start, uint8_t x_end, uint8_t y_end, uint8_t colo
 2971              		.loc 1 1221 103
 2972              		.cfi_startproc
 2973              		@ args = 4, pretend = 0, frame = 32
 2974              		@ frame_needed = 1, uses_anonymous_args = 0
 2975 0000 90B5     		push	{r4, r7, lr}
 2976              		.cfi_def_cfa_offset 12
 2977              		.cfi_offset 4, -12
 2978              		.cfi_offset 7, -8
 2979              		.cfi_offset 14, -4
 2980 0002 89B0     		sub	sp, sp, #36
 2981              		.cfi_def_cfa_offset 48
ARM GAS  C:\Users\Oleg\AppData\Local\Temp\ccxd6WqM.s 			page 80


 2982 0004 00AF     		add	r7, sp, #0
 2983              		.cfi_def_cfa_register 7
 2984 0006 0446     		mov	r4, r0
 2985 0008 0846     		mov	r0, r1
 2986 000a 1146     		mov	r1, r2
 2987 000c 1A46     		mov	r2, r3
 2988 000e 2346     		mov	r3, r4
 2989 0010 FB71     		strb	r3, [r7, #7]
 2990 0012 0346     		mov	r3, r0
 2991 0014 BB71     		strb	r3, [r7, #6]
 2992 0016 0B46     		mov	r3, r1
 2993 0018 7B71     		strb	r3, [r7, #5]
 2994 001a 1346     		mov	r3, r2
 2995 001c 3B71     		strb	r3, [r7, #4]
1222:MonoGFX/MonoGFX.c ****     int dx = (x_end >= x_start) ? x_end - x_start : x_start - x_end;
 2996              		.loc 1 1222 51
 2997 001e 7A79     		ldrb	r2, [r7, #5]	@ zero_extendqisi2
 2998 0020 FB79     		ldrb	r3, [r7, #7]	@ zero_extendqisi2
 2999 0022 9A42     		cmp	r2, r3
 3000 0024 03D3     		bcc	.L184
 3001              		.loc 1 1222 41 discriminator 1
 3002 0026 7A79     		ldrb	r2, [r7, #5]	@ zero_extendqisi2
 3003 0028 FB79     		ldrb	r3, [r7, #7]	@ zero_extendqisi2
 3004              		.loc 1 1222 51 discriminator 1
 3005 002a D31A     		subs	r3, r2, r3
 3006 002c 02E0     		b	.L185
 3007              	.L184:
 3008              		.loc 1 1222 61 discriminator 2
 3009 002e FA79     		ldrb	r2, [r7, #7]	@ zero_extendqisi2
 3010 0030 7B79     		ldrb	r3, [r7, #5]	@ zero_extendqisi2
 3011              		.loc 1 1222 51 discriminator 2
 3012 0032 D31A     		subs	r3, r2, r3
 3013              	.L185:
 3014              		.loc 1 1222 9 discriminator 4
 3015 0034 BB61     		str	r3, [r7, #24]
1223:MonoGFX/MonoGFX.c ****     int dy = (y_end >= y_start) ? y_end - y_start : y_start - y_end;
 3016              		.loc 1 1223 51 discriminator 4
 3017 0036 3A79     		ldrb	r2, [r7, #4]	@ zero_extendqisi2
 3018 0038 BB79     		ldrb	r3, [r7, #6]	@ zero_extendqisi2
 3019 003a 9A42     		cmp	r2, r3
 3020 003c 03D3     		bcc	.L186
 3021              		.loc 1 1223 41 discriminator 1
 3022 003e 3A79     		ldrb	r2, [r7, #4]	@ zero_extendqisi2
 3023 0040 BB79     		ldrb	r3, [r7, #6]	@ zero_extendqisi2
 3024              		.loc 1 1223 51 discriminator 1
 3025 0042 D31A     		subs	r3, r2, r3
 3026 0044 02E0     		b	.L187
 3027              	.L186:
 3028              		.loc 1 1223 61 discriminator 2
 3029 0046 BA79     		ldrb	r2, [r7, #6]	@ zero_extendqisi2
 3030 0048 3B79     		ldrb	r3, [r7, #4]	@ zero_extendqisi2
 3031              		.loc 1 1223 51 discriminator 2
 3032 004a D31A     		subs	r3, r2, r3
 3033              	.L187:
 3034              		.loc 1 1223 9 discriminator 4
 3035 004c 7B61     		str	r3, [r7, #20]
1224:MonoGFX/MonoGFX.c ****     int sx = (x_start < x_end) ? 1 : -1;
ARM GAS  C:\Users\Oleg\AppData\Local\Temp\ccxd6WqM.s 			page 81


 3036              		.loc 1 1224 36 discriminator 4
 3037 004e FA79     		ldrb	r2, [r7, #7]	@ zero_extendqisi2
 3038 0050 7B79     		ldrb	r3, [r7, #5]	@ zero_extendqisi2
 3039 0052 9A42     		cmp	r2, r3
 3040 0054 01D2     		bcs	.L188
 3041              		.loc 1 1224 36 is_stmt 0 discriminator 1
 3042 0056 0123     		movs	r3, #1
 3043 0058 01E0     		b	.L189
 3044              	.L188:
 3045              		.loc 1 1224 36 discriminator 2
 3046 005a 4FF0FF33 		mov	r3, #-1
 3047              	.L189:
 3048              		.loc 1 1224 9 is_stmt 1 discriminator 4
 3049 005e 3B61     		str	r3, [r7, #16]
1225:MonoGFX/MonoGFX.c ****     int sy = (y_start < y_end) ? 1 : -1;
 3050              		.loc 1 1225 36 discriminator 4
 3051 0060 BA79     		ldrb	r2, [r7, #6]	@ zero_extendqisi2
 3052 0062 3B79     		ldrb	r3, [r7, #4]	@ zero_extendqisi2
 3053 0064 9A42     		cmp	r2, r3
 3054 0066 01D2     		bcs	.L190
 3055              		.loc 1 1225 36 is_stmt 0 discriminator 1
 3056 0068 0123     		movs	r3, #1
 3057 006a 01E0     		b	.L191
 3058              	.L190:
 3059              		.loc 1 1225 36 discriminator 2
 3060 006c 4FF0FF33 		mov	r3, #-1
 3061              	.L191:
 3062              		.loc 1 1225 9 is_stmt 1 discriminator 4
 3063 0070 FB60     		str	r3, [r7, #12]
1226:MonoGFX/MonoGFX.c ****     int err = dx - dy;
 3064              		.loc 1 1226 9 discriminator 4
 3065 0072 BA69     		ldr	r2, [r7, #24]
 3066 0074 7B69     		ldr	r3, [r7, #20]
 3067 0076 D31A     		subs	r3, r2, r3
 3068 0078 FB61     		str	r3, [r7, #28]
 3069              	.L196:
 3070              	.LBB26:
1227:MonoGFX/MonoGFX.c **** 
1228:MonoGFX/MonoGFX.c ****     for (;;) {
1229:MonoGFX/MonoGFX.c ****         MonoGFX_Draw_pixel(x_start, y_start, color);
 3071              		.loc 1 1229 9
 3072 007a FB79     		ldrb	r3, [r7, #7]	@ zero_extendqisi2
 3073 007c 1BB2     		sxth	r3, r3
 3074 007e BA79     		ldrb	r2, [r7, #6]	@ zero_extendqisi2
 3075 0080 11B2     		sxth	r1, r2
 3076 0082 97F83020 		ldrb	r2, [r7, #48]	@ zero_extendqisi2
 3077 0086 1846     		mov	r0, r3
 3078 0088 FFF7FEFF 		bl	MonoGFX_Draw_pixel
1230:MonoGFX/MonoGFX.c ****         if (x_start == x_end && y_start == y_end)
 3079              		.loc 1 1230 12
 3080 008c FA79     		ldrb	r2, [r7, #7]	@ zero_extendqisi2
 3081 008e 7B79     		ldrb	r3, [r7, #5]	@ zero_extendqisi2
 3082 0090 9A42     		cmp	r2, r3
 3083 0092 03D1     		bne	.L192
 3084              		.loc 1 1230 30 discriminator 1
 3085 0094 BA79     		ldrb	r2, [r7, #6]	@ zero_extendqisi2
 3086 0096 3B79     		ldrb	r3, [r7, #4]	@ zero_extendqisi2
ARM GAS  C:\Users\Oleg\AppData\Local\Temp\ccxd6WqM.s 			page 82


 3087 0098 9A42     		cmp	r2, r3
 3088 009a 1ED0     		beq	.L198
 3089              	.L192:
1231:MonoGFX/MonoGFX.c ****             break;
1232:MonoGFX/MonoGFX.c ****         int e2 = err + err;
 3090              		.loc 1 1232 13
 3091 009c FB69     		ldr	r3, [r7, #28]
 3092 009e 5B00     		lsls	r3, r3, #1
 3093 00a0 BB60     		str	r3, [r7, #8]
1233:MonoGFX/MonoGFX.c ****         if (e2 > -dy) {
 3094              		.loc 1 1233 18
 3095 00a2 7B69     		ldr	r3, [r7, #20]
 3096 00a4 5B42     		rsbs	r3, r3, #0
 3097              		.loc 1 1233 12
 3098 00a6 BA68     		ldr	r2, [r7, #8]
 3099 00a8 9A42     		cmp	r2, r3
 3100 00aa 08DD     		ble	.L194
1234:MonoGFX/MonoGFX.c ****             err -= dy;
 3101              		.loc 1 1234 17
 3102 00ac FA69     		ldr	r2, [r7, #28]
 3103 00ae 7B69     		ldr	r3, [r7, #20]
 3104 00b0 D31A     		subs	r3, r2, r3
 3105 00b2 FB61     		str	r3, [r7, #28]
1235:MonoGFX/MonoGFX.c ****             x_start += sx;
 3106              		.loc 1 1235 21
 3107 00b4 3B69     		ldr	r3, [r7, #16]
 3108 00b6 DAB2     		uxtb	r2, r3
 3109 00b8 FB79     		ldrb	r3, [r7, #7]
 3110 00ba 1344     		add	r3, r3, r2
 3111 00bc FB71     		strb	r3, [r7, #7]
 3112              	.L194:
1236:MonoGFX/MonoGFX.c ****         }
1237:MonoGFX/MonoGFX.c ****         if (e2 < dx) {
 3113              		.loc 1 1237 12
 3114 00be BA68     		ldr	r2, [r7, #8]
 3115 00c0 BB69     		ldr	r3, [r7, #24]
 3116 00c2 9A42     		cmp	r2, r3
 3117 00c4 D9DA     		bge	.L196
1238:MonoGFX/MonoGFX.c ****             err += dx;
 3118              		.loc 1 1238 17
 3119 00c6 FA69     		ldr	r2, [r7, #28]
 3120 00c8 BB69     		ldr	r3, [r7, #24]
 3121 00ca 1344     		add	r3, r3, r2
 3122 00cc FB61     		str	r3, [r7, #28]
1239:MonoGFX/MonoGFX.c ****             y_start += sy;
 3123              		.loc 1 1239 21
 3124 00ce FB68     		ldr	r3, [r7, #12]
 3125 00d0 DAB2     		uxtb	r2, r3
 3126 00d2 BB79     		ldrb	r3, [r7, #6]
 3127 00d4 1344     		add	r3, r3, r2
 3128 00d6 BB71     		strb	r3, [r7, #6]
 3129              	.LBE26:
1228:MonoGFX/MonoGFX.c ****         MonoGFX_Draw_pixel(x_start, y_start, color);
 3130              		.loc 1 1228 14
 3131 00d8 CFE7     		b	.L196
 3132              	.L198:
 3133              	.LBB27:
ARM GAS  C:\Users\Oleg\AppData\Local\Temp\ccxd6WqM.s 			page 83


1231:MonoGFX/MonoGFX.c ****         int e2 = err + err;
 3134              		.loc 1 1231 13
 3135 00da 00BF     		nop
 3136              	.LBE27:
1240:MonoGFX/MonoGFX.c ****         }
1241:MonoGFX/MonoGFX.c ****     }
1242:MonoGFX/MonoGFX.c **** }
 3137              		.loc 1 1242 1
 3138 00dc 00BF     		nop
 3139 00de 2437     		adds	r7, r7, #36
 3140              		.cfi_def_cfa_offset 12
 3141 00e0 BD46     		mov	sp, r7
 3142              		.cfi_def_cfa_register 13
 3143              		@ sp needed
 3144 00e2 90BD     		pop	{r4, r7, pc}
 3145              		.cfi_endproc
 3146              	.LFE82:
 3148              		.section	.text.MonoGFX_Draw_rectangle,"ax",%progbits
 3149              		.align	1
 3150              		.global	MonoGFX_Draw_rectangle
 3151              		.syntax unified
 3152              		.thumb
 3153              		.thumb_func
 3155              	MonoGFX_Draw_rectangle:
 3156              	.LFB83:
1243:MonoGFX/MonoGFX.c **** 
1244:MonoGFX/MonoGFX.c **** /**
1245:MonoGFX/MonoGFX.c ****  ******************************************************************************
1246:MonoGFX/MonoGFX.c ****  *  @breif –§—É–Ω–∫—Ü–∏—è, —Ä–∏—Å—É—é—â–∞—è –ø—É—Å—Ç–æ—Ç–µ–ª—ã–π –ø—Ä—è–º–æ—É–≥–æ–ª—å–Ω–∏–∫
1247:MonoGFX/MonoGFX.c ****  *  @param uint8_t x_start - –Ω–∞—á–∞–ª—å–Ω–∞—è –∫–æ–æ—Ä–¥–∏–Ω–∞—Ç–∞ –ø–æ x
1248:MonoGFX/MonoGFX.c ****  *  @param uint8_t y_start - –Ω–∞—á–∞–ª—å–Ω–∞—è –∫–æ–æ—Ä–¥–∏–Ω–∞—Ç–∞ –ø–æ y
1249:MonoGFX/MonoGFX.c ****  *  @param width - —à–∏—Ä–∏–Ω–∞ –ø—Ä—è–º–æ—É–≥–æ–ª—å–Ω–∏–∫–∞
1250:MonoGFX/MonoGFX.c ****  *  @param height - –≤—ã—Å–æ—Ç–∞ –ø—Ä—è–º–æ—É–≥–æ–ª—å–Ω–∏–∫–∞y
1251:MonoGFX/MonoGFX.c ****  *  @param uint8_t color - —Ü–≤–µ—Ç –ø–∏–∫—Å–µ–ª—è (1/0)
1252:MonoGFX/MonoGFX.c ****  ******************************************************************************
1253:MonoGFX/MonoGFX.c ****  */
1254:MonoGFX/MonoGFX.c **** 
1255:MonoGFX/MonoGFX.c **** void MonoGFX_Draw_rectangle(uint16_t x, uint16_t y, uint16_t width, uint16_t height, uint8_t color)
 3157              		.loc 1 1255 101
 3158              		.cfi_startproc
 3159              		@ args = 4, pretend = 0, frame = 8
 3160              		@ frame_needed = 1, uses_anonymous_args = 0
 3161 0000 90B5     		push	{r4, r7, lr}
 3162              		.cfi_def_cfa_offset 12
 3163              		.cfi_offset 4, -12
 3164              		.cfi_offset 7, -8
 3165              		.cfi_offset 14, -4
 3166 0002 85B0     		sub	sp, sp, #20
 3167              		.cfi_def_cfa_offset 32
 3168 0004 02AF     		add	r7, sp, #8
 3169              		.cfi_def_cfa 7, 24
 3170 0006 0446     		mov	r4, r0
 3171 0008 0846     		mov	r0, r1
 3172 000a 1146     		mov	r1, r2
 3173 000c 1A46     		mov	r2, r3
 3174 000e 2346     		mov	r3, r4	@ movhi
 3175 0010 FB80     		strh	r3, [r7, #6]	@ movhi
ARM GAS  C:\Users\Oleg\AppData\Local\Temp\ccxd6WqM.s 			page 84


 3176 0012 0346     		mov	r3, r0	@ movhi
 3177 0014 BB80     		strh	r3, [r7, #4]	@ movhi
 3178 0016 0B46     		mov	r3, r1	@ movhi
 3179 0018 7B80     		strh	r3, [r7, #2]	@ movhi
 3180 001a 1346     		mov	r3, r2	@ movhi
 3181 001c 3B80     		strh	r3, [r7]	@ movhi
1256:MonoGFX/MonoGFX.c ****     /*–ü—Ä–æ–≤–µ—Ä–∫–∞ —à–∏—Ä–∏–Ω—ã –∏ –≤—ã—Å–æ—Ç—ã*/
1257:MonoGFX/MonoGFX.c ****     if ((x + width) >= MonoGFX_width) {
 3182              		.loc 1 1257 12
 3183 001e FA88     		ldrh	r2, [r7, #6]
 3184 0020 7B88     		ldrh	r3, [r7, #2]
 3185 0022 1344     		add	r3, r3, r2
 3186              		.loc 1 1257 21
 3187 0024 384A     		ldr	r2, .L202
 3188 0026 1278     		ldrb	r2, [r2]	@ zero_extendqisi2
 3189              		.loc 1 1257 8
 3190 0028 9342     		cmp	r3, r2
 3191 002a 05DB     		blt	.L200
1258:MonoGFX/MonoGFX.c ****         width = MonoGFX_width - x;
 3192              		.loc 1 1258 31
 3193 002c 364B     		ldr	r3, .L202
 3194 002e 1B78     		ldrb	r3, [r3]	@ zero_extendqisi2
 3195 0030 9AB2     		uxth	r2, r3
 3196              		.loc 1 1258 15
 3197 0032 FB88     		ldrh	r3, [r7, #6]	@ movhi
 3198 0034 D31A     		subs	r3, r2, r3
 3199 0036 7B80     		strh	r3, [r7, #2]	@ movhi
 3200              	.L200:
1259:MonoGFX/MonoGFX.c ****     }
1260:MonoGFX/MonoGFX.c ****     if ((y + height) >= MonoGFX_height) {
 3201              		.loc 1 1260 12
 3202 0038 BA88     		ldrh	r2, [r7, #4]
 3203 003a 3B88     		ldrh	r3, [r7]
 3204 003c 1344     		add	r3, r3, r2
 3205              		.loc 1 1260 22
 3206 003e 334A     		ldr	r2, .L202+4
 3207 0040 1278     		ldrb	r2, [r2]	@ zero_extendqisi2
 3208              		.loc 1 1260 8
 3209 0042 9342     		cmp	r3, r2
 3210 0044 05DB     		blt	.L201
1261:MonoGFX/MonoGFX.c ****         height = MonoGFX_height - y;
 3211              		.loc 1 1261 33
 3212 0046 314B     		ldr	r3, .L202+4
 3213 0048 1B78     		ldrb	r3, [r3]	@ zero_extendqisi2
 3214 004a 9AB2     		uxth	r2, r3
 3215              		.loc 1 1261 16
 3216 004c BB88     		ldrh	r3, [r7, #4]	@ movhi
 3217 004e D31A     		subs	r3, r2, r3
 3218 0050 3B80     		strh	r3, [r7]	@ movhi
 3219              	.L201:
1262:MonoGFX/MonoGFX.c ****     }
1263:MonoGFX/MonoGFX.c **** 
1264:MonoGFX/MonoGFX.c ****     /*–†–∏—Å—É–µ–º –ª–∏–Ω–∏–∏*/
1265:MonoGFX/MonoGFX.c ****     MonoGFX_Draw_line(x, y, x + width, y, color);                   /*–í–µ—Ä—Ö –ø—Ä—è–º–æ—É–≥–æ–ª—å
 3220              		.loc 1 1265 5
 3221 0052 FB88     		ldrh	r3, [r7, #6]	@ movhi
 3222 0054 D8B2     		uxtb	r0, r3
ARM GAS  C:\Users\Oleg\AppData\Local\Temp\ccxd6WqM.s 			page 85


 3223 0056 BB88     		ldrh	r3, [r7, #4]	@ movhi
 3224 0058 D9B2     		uxtb	r1, r3
 3225 005a FB88     		ldrh	r3, [r7, #6]	@ movhi
 3226 005c DAB2     		uxtb	r2, r3
 3227 005e 7B88     		ldrh	r3, [r7, #2]	@ movhi
 3228 0060 DBB2     		uxtb	r3, r3
 3229 0062 1344     		add	r3, r3, r2
 3230 0064 DAB2     		uxtb	r2, r3
 3231 0066 BB88     		ldrh	r3, [r7, #4]	@ movhi
 3232 0068 DCB2     		uxtb	r4, r3
 3233 006a 3B7E     		ldrb	r3, [r7, #24]	@ zero_extendqisi2
 3234 006c 0093     		str	r3, [sp]
 3235 006e 2346     		mov	r3, r4
 3236 0070 FFF7FEFF 		bl	MonoGFX_Draw_line
1266:MonoGFX/MonoGFX.c ****     MonoGFX_Draw_line(x, y + height, x + width, y + height, color); /*–ù–∏–∑ –ø—Ä—è–º–æ—É–≥–æ–ª—å–Ω
 3237              		.loc 1 1266 5
 3238 0074 FB88     		ldrh	r3, [r7, #6]	@ movhi
 3239 0076 D8B2     		uxtb	r0, r3
 3240 0078 BB88     		ldrh	r3, [r7, #4]	@ movhi
 3241 007a DAB2     		uxtb	r2, r3
 3242 007c 3B88     		ldrh	r3, [r7]	@ movhi
 3243 007e DBB2     		uxtb	r3, r3
 3244 0080 1344     		add	r3, r3, r2
 3245 0082 D9B2     		uxtb	r1, r3
 3246 0084 FB88     		ldrh	r3, [r7, #6]	@ movhi
 3247 0086 DAB2     		uxtb	r2, r3
 3248 0088 7B88     		ldrh	r3, [r7, #2]	@ movhi
 3249 008a DBB2     		uxtb	r3, r3
 3250 008c 1344     		add	r3, r3, r2
 3251 008e DCB2     		uxtb	r4, r3
 3252 0090 BB88     		ldrh	r3, [r7, #4]	@ movhi
 3253 0092 DAB2     		uxtb	r2, r3
 3254 0094 3B88     		ldrh	r3, [r7]	@ movhi
 3255 0096 DBB2     		uxtb	r3, r3
 3256 0098 1344     		add	r3, r3, r2
 3257 009a DAB2     		uxtb	r2, r3
 3258 009c 3B7E     		ldrb	r3, [r7, #24]	@ zero_extendqisi2
 3259 009e 0093     		str	r3, [sp]
 3260 00a0 1346     		mov	r3, r2
 3261 00a2 2246     		mov	r2, r4
 3262 00a4 FFF7FEFF 		bl	MonoGFX_Draw_line
1267:MonoGFX/MonoGFX.c ****     MonoGFX_Draw_line(x, y, x, y + height, color);                  /*–õ–µ–≤–∞—è —Å—Ç–æ—Ä–æ–Ω–∞ –ø—
 3263              		.loc 1 1267 5
 3264 00a8 FB88     		ldrh	r3, [r7, #6]	@ movhi
 3265 00aa D8B2     		uxtb	r0, r3
 3266 00ac BB88     		ldrh	r3, [r7, #4]	@ movhi
 3267 00ae D9B2     		uxtb	r1, r3
 3268 00b0 FB88     		ldrh	r3, [r7, #6]	@ movhi
 3269 00b2 DCB2     		uxtb	r4, r3
 3270 00b4 BB88     		ldrh	r3, [r7, #4]	@ movhi
 3271 00b6 DAB2     		uxtb	r2, r3
 3272 00b8 3B88     		ldrh	r3, [r7]	@ movhi
 3273 00ba DBB2     		uxtb	r3, r3
 3274 00bc 1344     		add	r3, r3, r2
 3275 00be DAB2     		uxtb	r2, r3
 3276 00c0 3B7E     		ldrb	r3, [r7, #24]	@ zero_extendqisi2
 3277 00c2 0093     		str	r3, [sp]
ARM GAS  C:\Users\Oleg\AppData\Local\Temp\ccxd6WqM.s 			page 86


 3278 00c4 1346     		mov	r3, r2
 3279 00c6 2246     		mov	r2, r4
 3280 00c8 FFF7FEFF 		bl	MonoGFX_Draw_line
1268:MonoGFX/MonoGFX.c ****     MonoGFX_Draw_line(x + width, y, x + width, y + height, color);  /*–ü—Ä–∞–≤–∞—è —Å—Ç–æ—Ä–æ–Ω–∞ –
 3281              		.loc 1 1268 5
 3282 00cc FB88     		ldrh	r3, [r7, #6]	@ movhi
 3283 00ce DAB2     		uxtb	r2, r3
 3284 00d0 7B88     		ldrh	r3, [r7, #2]	@ movhi
 3285 00d2 DBB2     		uxtb	r3, r3
 3286 00d4 1344     		add	r3, r3, r2
 3287 00d6 D8B2     		uxtb	r0, r3
 3288 00d8 BB88     		ldrh	r3, [r7, #4]	@ movhi
 3289 00da D9B2     		uxtb	r1, r3
 3290 00dc FB88     		ldrh	r3, [r7, #6]	@ movhi
 3291 00de DAB2     		uxtb	r2, r3
 3292 00e0 7B88     		ldrh	r3, [r7, #2]	@ movhi
 3293 00e2 DBB2     		uxtb	r3, r3
 3294 00e4 1344     		add	r3, r3, r2
 3295 00e6 DCB2     		uxtb	r4, r3
 3296 00e8 BB88     		ldrh	r3, [r7, #4]	@ movhi
 3297 00ea DAB2     		uxtb	r2, r3
 3298 00ec 3B88     		ldrh	r3, [r7]	@ movhi
 3299 00ee DBB2     		uxtb	r3, r3
 3300 00f0 1344     		add	r3, r3, r2
 3301 00f2 DAB2     		uxtb	r2, r3
 3302 00f4 3B7E     		ldrb	r3, [r7, #24]	@ zero_extendqisi2
 3303 00f6 0093     		str	r3, [sp]
 3304 00f8 1346     		mov	r3, r2
 3305 00fa 2246     		mov	r2, r4
 3306 00fc FFF7FEFF 		bl	MonoGFX_Draw_line
1269:MonoGFX/MonoGFX.c **** }
 3307              		.loc 1 1269 1
 3308 0100 00BF     		nop
 3309 0102 0C37     		adds	r7, r7, #12
 3310              		.cfi_def_cfa_offset 12
 3311 0104 BD46     		mov	sp, r7
 3312              		.cfi_def_cfa_register 13
 3313              		@ sp needed
 3314 0106 90BD     		pop	{r4, r7, pc}
 3315              	.L203:
 3316              		.align	2
 3317              	.L202:
 3318 0108 00000000 		.word	MonoGFX_width
 3319 010c 00000000 		.word	MonoGFX_height
 3320              		.cfi_endproc
 3321              	.LFE83:
 3323              		.section	.text.MonoGFX_Draw_rectangle_filled,"ax",%progbits
 3324              		.align	1
 3325              		.global	MonoGFX_Draw_rectangle_filled
 3326              		.syntax unified
 3327              		.thumb
 3328              		.thumb_func
 3330              	MonoGFX_Draw_rectangle_filled:
 3331              	.LFB84:
1270:MonoGFX/MonoGFX.c **** 
1271:MonoGFX/MonoGFX.c **** /**
1272:MonoGFX/MonoGFX.c ****  ******************************************************************************
ARM GAS  C:\Users\Oleg\AppData\Local\Temp\ccxd6WqM.s 			page 87


1273:MonoGFX/MonoGFX.c ****  *  @breif –§—É–Ω–∫—Ü–∏—è, —Ä–∏—Å—É—é—â–∞—è –∑–∞–∫—Ä–∞—à–µ–Ω–Ω—ã–π –ø—Ä—è–º–æ—É–≥–æ–ª—å–Ω–∏–∫
1274:MonoGFX/MonoGFX.c ****  *  @param uint8_t x_start - –Ω–∞—á–∞–ª—å–Ω–∞—è –∫–æ–æ—Ä–¥–∏–Ω–∞—Ç–∞ –ø–æ x
1275:MonoGFX/MonoGFX.c ****  *  @param uint8_t y_start - –Ω–∞—á–∞–ª—å–Ω–∞—è –∫–æ–æ—Ä–¥–∏–Ω–∞—Ç–∞ –ø–æ y
1276:MonoGFX/MonoGFX.c ****  *  @param width - —à–∏—Ä–∏–Ω–∞ –ø—Ä—è–º–æ—É–≥–æ–ª—å–Ω–∏–∫–∞
1277:MonoGFX/MonoGFX.c ****  *  @param height - –≤—ã—Å–æ—Ç–∞ –ø—Ä—è–º–æ—É–≥–æ–ª—å–Ω–∏–∫–∞y
1278:MonoGFX/MonoGFX.c ****  *  @param uint8_t color - —Ü–≤–µ—Ç –ø–∏–∫—Å–µ–ª—è (1/0)
1279:MonoGFX/MonoGFX.c ****  ******************************************************************************
1280:MonoGFX/MonoGFX.c ****  */
1281:MonoGFX/MonoGFX.c **** 
1282:MonoGFX/MonoGFX.c **** void MonoGFX_Draw_rectangle_filled(uint16_t x, uint16_t y, uint16_t width, uint16_t height, uint8_t
 3332              		.loc 1 1282 108
 3333              		.cfi_startproc
 3334              		@ args = 4, pretend = 0, frame = 16
 3335              		@ frame_needed = 1, uses_anonymous_args = 0
 3336 0000 90B5     		push	{r4, r7, lr}
 3337              		.cfi_def_cfa_offset 12
 3338              		.cfi_offset 4, -12
 3339              		.cfi_offset 7, -8
 3340              		.cfi_offset 14, -4
 3341 0002 87B0     		sub	sp, sp, #28
 3342              		.cfi_def_cfa_offset 40
 3343 0004 02AF     		add	r7, sp, #8
 3344              		.cfi_def_cfa 7, 32
 3345 0006 0446     		mov	r4, r0
 3346 0008 0846     		mov	r0, r1
 3347 000a 1146     		mov	r1, r2
 3348 000c 1A46     		mov	r2, r3
 3349 000e 2346     		mov	r3, r4	@ movhi
 3350 0010 FB80     		strh	r3, [r7, #6]	@ movhi
 3351 0012 0346     		mov	r3, r0	@ movhi
 3352 0014 BB80     		strh	r3, [r7, #4]	@ movhi
 3353 0016 0B46     		mov	r3, r1	@ movhi
 3354 0018 7B80     		strh	r3, [r7, #2]	@ movhi
 3355 001a 1346     		mov	r3, r2	@ movhi
 3356 001c 3B80     		strh	r3, [r7]	@ movhi
1283:MonoGFX/MonoGFX.c ****     /*–ü—Ä–æ–≤–µ—Ä–∫–∞ —à–∏—Ä–∏–Ω—ã –∏ –≤—ã—Å–æ—Ç—ã*/
1284:MonoGFX/MonoGFX.c ****     if ((x + width) >= MonoGFX_width) {
 3357              		.loc 1 1284 12
 3358 001e FA88     		ldrh	r2, [r7, #6]
 3359 0020 7B88     		ldrh	r3, [r7, #2]
 3360 0022 1344     		add	r3, r3, r2
 3361              		.loc 1 1284 21
 3362 0024 1F4A     		ldr	r2, .L209
 3363 0026 1278     		ldrb	r2, [r2]	@ zero_extendqisi2
 3364              		.loc 1 1284 8
 3365 0028 9342     		cmp	r3, r2
 3366 002a 05DB     		blt	.L205
1285:MonoGFX/MonoGFX.c ****         width = MonoGFX_width - x;
 3367              		.loc 1 1285 31
 3368 002c 1D4B     		ldr	r3, .L209
 3369 002e 1B78     		ldrb	r3, [r3]	@ zero_extendqisi2
 3370 0030 9AB2     		uxth	r2, r3
 3371              		.loc 1 1285 15
 3372 0032 FB88     		ldrh	r3, [r7, #6]	@ movhi
 3373 0034 D31A     		subs	r3, r2, r3
 3374 0036 7B80     		strh	r3, [r7, #2]	@ movhi
 3375              	.L205:
ARM GAS  C:\Users\Oleg\AppData\Local\Temp\ccxd6WqM.s 			page 88


1286:MonoGFX/MonoGFX.c ****     }
1287:MonoGFX/MonoGFX.c ****     if ((y + height) >= MonoGFX_height) {
 3376              		.loc 1 1287 12
 3377 0038 BA88     		ldrh	r2, [r7, #4]
 3378 003a 3B88     		ldrh	r3, [r7]
 3379 003c 1344     		add	r3, r3, r2
 3380              		.loc 1 1287 22
 3381 003e 1A4A     		ldr	r2, .L209+4
 3382 0040 1278     		ldrb	r2, [r2]	@ zero_extendqisi2
 3383              		.loc 1 1287 8
 3384 0042 9342     		cmp	r3, r2
 3385 0044 05DB     		blt	.L206
1288:MonoGFX/MonoGFX.c ****         height = MonoGFX_height - y;
 3386              		.loc 1 1288 33
 3387 0046 184B     		ldr	r3, .L209+4
 3388 0048 1B78     		ldrb	r3, [r3]	@ zero_extendqisi2
 3389 004a 9AB2     		uxth	r2, r3
 3390              		.loc 1 1288 16
 3391 004c BB88     		ldrh	r3, [r7, #4]	@ movhi
 3392 004e D31A     		subs	r3, r2, r3
 3393 0050 3B80     		strh	r3, [r7]	@ movhi
 3394              	.L206:
 3395              	.LBB28:
1289:MonoGFX/MonoGFX.c ****     }
1290:MonoGFX/MonoGFX.c **** 
1291:MonoGFX/MonoGFX.c ****     /*–†–∏—Å—É–µ–º –ª–∏–Ω–∏–∏*/
1292:MonoGFX/MonoGFX.c ****     for (uint8_t i = 0; i <= height; i++) {
 3396              		.loc 1 1292 18
 3397 0052 0023     		movs	r3, #0
 3398 0054 FB73     		strb	r3, [r7, #15]
 3399              		.loc 1 1292 5
 3400 0056 1BE0     		b	.L207
 3401              	.L208:
1293:MonoGFX/MonoGFX.c ****         MonoGFX_Draw_line(x, y + i, x + width, y + i, color);
 3402              		.loc 1 1293 9 discriminator 3
 3403 0058 FB88     		ldrh	r3, [r7, #6]	@ movhi
 3404 005a D8B2     		uxtb	r0, r3
 3405 005c BB88     		ldrh	r3, [r7, #4]	@ movhi
 3406 005e DAB2     		uxtb	r2, r3
 3407 0060 FB7B     		ldrb	r3, [r7, #15]
 3408 0062 1344     		add	r3, r3, r2
 3409 0064 D9B2     		uxtb	r1, r3
 3410 0066 FB88     		ldrh	r3, [r7, #6]	@ movhi
 3411 0068 DAB2     		uxtb	r2, r3
 3412 006a 7B88     		ldrh	r3, [r7, #2]	@ movhi
 3413 006c DBB2     		uxtb	r3, r3
 3414 006e 1344     		add	r3, r3, r2
 3415 0070 DCB2     		uxtb	r4, r3
 3416 0072 BB88     		ldrh	r3, [r7, #4]	@ movhi
 3417 0074 DAB2     		uxtb	r2, r3
 3418 0076 FB7B     		ldrb	r3, [r7, #15]
 3419 0078 1344     		add	r3, r3, r2
 3420 007a DAB2     		uxtb	r2, r3
 3421 007c 97F82030 		ldrb	r3, [r7, #32]	@ zero_extendqisi2
 3422 0080 0093     		str	r3, [sp]
 3423 0082 1346     		mov	r3, r2
 3424 0084 2246     		mov	r2, r4
ARM GAS  C:\Users\Oleg\AppData\Local\Temp\ccxd6WqM.s 			page 89


 3425 0086 FFF7FEFF 		bl	MonoGFX_Draw_line
1292:MonoGFX/MonoGFX.c ****         MonoGFX_Draw_line(x, y + i, x + width, y + i, color);
 3426              		.loc 1 1292 39 discriminator 3
 3427 008a FB7B     		ldrb	r3, [r7, #15]	@ zero_extendqisi2
 3428 008c 0133     		adds	r3, r3, #1
 3429 008e FB73     		strb	r3, [r7, #15]
 3430              	.L207:
1292:MonoGFX/MonoGFX.c ****         MonoGFX_Draw_line(x, y + i, x + width, y + i, color);
 3431              		.loc 1 1292 27 discriminator 1
 3432 0090 FB7B     		ldrb	r3, [r7, #15]	@ zero_extendqisi2
 3433 0092 9BB2     		uxth	r3, r3
1292:MonoGFX/MonoGFX.c ****         MonoGFX_Draw_line(x, y + i, x + width, y + i, color);
 3434              		.loc 1 1292 5 discriminator 1
 3435 0094 3A88     		ldrh	r2, [r7]
 3436 0096 9A42     		cmp	r2, r3
 3437 0098 DED2     		bcs	.L208
 3438              	.LBE28:
1294:MonoGFX/MonoGFX.c ****     }
1295:MonoGFX/MonoGFX.c **** }
 3439              		.loc 1 1295 1
 3440 009a 00BF     		nop
 3441 009c 00BF     		nop
 3442 009e 1437     		adds	r7, r7, #20
 3443              		.cfi_def_cfa_offset 12
 3444 00a0 BD46     		mov	sp, r7
 3445              		.cfi_def_cfa_register 13
 3446              		@ sp needed
 3447 00a2 90BD     		pop	{r4, r7, pc}
 3448              	.L210:
 3449              		.align	2
 3450              	.L209:
 3451 00a4 00000000 		.word	MonoGFX_width
 3452 00a8 00000000 		.word	MonoGFX_height
 3453              		.cfi_endproc
 3454              	.LFE84:
 3456              		.section	.text.MonoGFX_Draw_circle,"ax",%progbits
 3457              		.align	1
 3458              		.global	MonoGFX_Draw_circle
 3459              		.syntax unified
 3460              		.thumb
 3461              		.thumb_func
 3463              	MonoGFX_Draw_circle:
 3464              	.LFB85:
1296:MonoGFX/MonoGFX.c **** 
1297:MonoGFX/MonoGFX.c **** /**
1298:MonoGFX/MonoGFX.c ****  ******************************************************************************
1299:MonoGFX/MonoGFX.c ****  *  @breif –§—É–Ω–∫—Ü–∏—è, —Ä–∏—Å—É—é—â–∞—è –ø—É—Å—Ç–æ—Ç–µ–ª—É—é –æ–∫—Ä—É–∂–Ω–æ—Å—Ç—å
1300:MonoGFX/MonoGFX.c ****  *  @param uint8_t x - –Ω–∞—á–∞–ª—å–Ω–∞—è –∫–æ–æ—Ä–¥–∏–Ω–∞—Ç–∞ –ø–æ x (—Ü–µ–Ω—Ç—Ä –æ–∫—Ä—É–∂–Ω–æ—Å—
1301:MonoGFX/MonoGFX.c ****  *  @param uint8_t y - –Ω–∞—á–∞–ª—å–Ω–∞—è –∫–æ–æ—Ä–¥–∏–Ω–∞—Ç–∞ –ø–æ y (—Ü–µ–Ω—Ç—Ä –æ–∫—Ä—É–∂–Ω–æ—Å—
1302:MonoGFX/MonoGFX.c ****  *  @param uint8_t radius - —Ä–∞–¥–∏—É—Å –æ–∫—Ä—É–∂–Ω–æ—Å—Ç–∏
1303:MonoGFX/MonoGFX.c ****  *  @param uint8_t color - —Ü–≤–µ—Ç –ø–∏–∫—Å–µ–ª—è (1/0)
1304:MonoGFX/MonoGFX.c ****  ******************************************************************************
1305:MonoGFX/MonoGFX.c ****  */
1306:MonoGFX/MonoGFX.c **** 
1307:MonoGFX/MonoGFX.c **** void MonoGFX_Draw_circle(uint8_t x, uint8_t y, uint8_t radius, uint8_t color) {
 3465              		.loc 1 1307 79
 3466              		.cfi_startproc
ARM GAS  C:\Users\Oleg\AppData\Local\Temp\ccxd6WqM.s 			page 90


 3467              		@ args = 0, pretend = 0, frame = 32
 3468              		@ frame_needed = 1, uses_anonymous_args = 0
 3469 0000 90B5     		push	{r4, r7, lr}
 3470              		.cfi_def_cfa_offset 12
 3471              		.cfi_offset 4, -12
 3472              		.cfi_offset 7, -8
 3473              		.cfi_offset 14, -4
 3474 0002 89B0     		sub	sp, sp, #36
 3475              		.cfi_def_cfa_offset 48
 3476 0004 00AF     		add	r7, sp, #0
 3477              		.cfi_def_cfa_register 7
 3478 0006 0446     		mov	r4, r0
 3479 0008 0846     		mov	r0, r1
 3480 000a 1146     		mov	r1, r2
 3481 000c 1A46     		mov	r2, r3
 3482 000e 2346     		mov	r3, r4
 3483 0010 FB71     		strb	r3, [r7, #7]
 3484 0012 0346     		mov	r3, r0
 3485 0014 BB71     		strb	r3, [r7, #6]
 3486 0016 0B46     		mov	r3, r1
 3487 0018 7B71     		strb	r3, [r7, #5]
 3488 001a 1346     		mov	r3, r2
 3489 001c 3B71     		strb	r3, [r7, #4]
1308:MonoGFX/MonoGFX.c ****     int f = 1 - (int)radius;
 3490              		.loc 1 1308 17
 3491 001e 7B79     		ldrb	r3, [r7, #5]	@ zero_extendqisi2
 3492              		.loc 1 1308 9
 3493 0020 C3F10103 		rsb	r3, r3, #1
 3494 0024 FB61     		str	r3, [r7, #28]
1309:MonoGFX/MonoGFX.c ****     int ddF_x = 1;
 3495              		.loc 1 1309 9
 3496 0026 0123     		movs	r3, #1
 3497 0028 BB61     		str	r3, [r7, #24]
1310:MonoGFX/MonoGFX.c **** 
1311:MonoGFX/MonoGFX.c ****     int ddF_y = -2 * (int)radius;
 3498              		.loc 1 1311 22
 3499 002a 7A79     		ldrb	r2, [r7, #5]	@ zero_extendqisi2
 3500              		.loc 1 1311 9
 3501 002c 1346     		mov	r3, r2
 3502 002e DB07     		lsls	r3, r3, #31
 3503 0030 9B1A     		subs	r3, r3, r2
 3504 0032 5B00     		lsls	r3, r3, #1
 3505 0034 7B61     		str	r3, [r7, #20]
1312:MonoGFX/MonoGFX.c ****     int x_0 = 0;
 3506              		.loc 1 1312 9
 3507 0036 0023     		movs	r3, #0
 3508 0038 3B61     		str	r3, [r7, #16]
1313:MonoGFX/MonoGFX.c **** 
1314:MonoGFX/MonoGFX.c ****     MonoGFX_Draw_pixel(x, y + radius, color);
 3509              		.loc 1 1314 5
 3510 003a FB79     		ldrb	r3, [r7, #7]	@ zero_extendqisi2
 3511 003c 18B2     		sxth	r0, r3
 3512              		.loc 1 1314 29
 3513 003e BB79     		ldrb	r3, [r7, #6]	@ zero_extendqisi2
 3514 0040 9AB2     		uxth	r2, r3
 3515 0042 7B79     		ldrb	r3, [r7, #5]	@ zero_extendqisi2
 3516 0044 9BB2     		uxth	r3, r3
ARM GAS  C:\Users\Oleg\AppData\Local\Temp\ccxd6WqM.s 			page 91


 3517 0046 1344     		add	r3, r3, r2
 3518 0048 9BB2     		uxth	r3, r3
 3519              		.loc 1 1314 5
 3520 004a 1BB2     		sxth	r3, r3
 3521 004c 3A79     		ldrb	r2, [r7, #4]	@ zero_extendqisi2
 3522 004e 1946     		mov	r1, r3
 3523 0050 FFF7FEFF 		bl	MonoGFX_Draw_pixel
1315:MonoGFX/MonoGFX.c ****     MonoGFX_Draw_pixel(x, y - radius, color);
 3524              		.loc 1 1315 5
 3525 0054 FB79     		ldrb	r3, [r7, #7]	@ zero_extendqisi2
 3526 0056 18B2     		sxth	r0, r3
 3527              		.loc 1 1315 29
 3528 0058 BB79     		ldrb	r3, [r7, #6]	@ zero_extendqisi2
 3529 005a 9AB2     		uxth	r2, r3
 3530 005c 7B79     		ldrb	r3, [r7, #5]	@ zero_extendqisi2
 3531 005e 9BB2     		uxth	r3, r3
 3532 0060 D31A     		subs	r3, r2, r3
 3533 0062 9BB2     		uxth	r3, r3
 3534              		.loc 1 1315 5
 3535 0064 1BB2     		sxth	r3, r3
 3536 0066 3A79     		ldrb	r2, [r7, #4]	@ zero_extendqisi2
 3537 0068 1946     		mov	r1, r3
 3538 006a FFF7FEFF 		bl	MonoGFX_Draw_pixel
1316:MonoGFX/MonoGFX.c ****     MonoGFX_Draw_pixel(x + radius, y, color);
 3539              		.loc 1 1316 26
 3540 006e FB79     		ldrb	r3, [r7, #7]	@ zero_extendqisi2
 3541 0070 9AB2     		uxth	r2, r3
 3542 0072 7B79     		ldrb	r3, [r7, #5]	@ zero_extendqisi2
 3543 0074 9BB2     		uxth	r3, r3
 3544 0076 1344     		add	r3, r3, r2
 3545 0078 9BB2     		uxth	r3, r3
 3546              		.loc 1 1316 5
 3547 007a 1BB2     		sxth	r3, r3
 3548 007c BA79     		ldrb	r2, [r7, #6]	@ zero_extendqisi2
 3549 007e 11B2     		sxth	r1, r2
 3550 0080 3A79     		ldrb	r2, [r7, #4]	@ zero_extendqisi2
 3551 0082 1846     		mov	r0, r3
 3552 0084 FFF7FEFF 		bl	MonoGFX_Draw_pixel
1317:MonoGFX/MonoGFX.c ****     MonoGFX_Draw_pixel(x - radius, y, color);
 3553              		.loc 1 1317 26
 3554 0088 FB79     		ldrb	r3, [r7, #7]	@ zero_extendqisi2
 3555 008a 9AB2     		uxth	r2, r3
 3556 008c 7B79     		ldrb	r3, [r7, #5]	@ zero_extendqisi2
 3557 008e 9BB2     		uxth	r3, r3
 3558 0090 D31A     		subs	r3, r2, r3
 3559 0092 9BB2     		uxth	r3, r3
 3560              		.loc 1 1317 5
 3561 0094 1BB2     		sxth	r3, r3
 3562 0096 BA79     		ldrb	r2, [r7, #6]	@ zero_extendqisi2
 3563 0098 11B2     		sxth	r1, r2
 3564 009a 3A79     		ldrb	r2, [r7, #4]	@ zero_extendqisi2
 3565 009c 1846     		mov	r0, r3
 3566 009e FFF7FEFF 		bl	MonoGFX_Draw_pixel
1318:MonoGFX/MonoGFX.c **** 
1319:MonoGFX/MonoGFX.c ****     int y_0 = radius;
 3567              		.loc 1 1319 9
 3568 00a2 7B79     		ldrb	r3, [r7, #5]	@ zero_extendqisi2
ARM GAS  C:\Users\Oleg\AppData\Local\Temp\ccxd6WqM.s 			page 92


 3569 00a4 FB60     		str	r3, [r7, #12]
